(dp0
V|CPD-12041|
p1
I32
sV|tRNA-archaeosine|
p2
I1
sV|Glycoprotein-L-serine-or-L-threonine|
p3
I8
sV|ALPHA11-ALPHA-EPOXY-15-HYDROXYTHROMBA|
p4
I4
sV|CPD-14112|
p5
I32
sV|CPD-718|
p6
I63
sV|4-COUMAROYLQUINATE|
p7
I46
sV|CPD-14740|
p8
I8
sV|CPD-14018|
p9
I66
sV|D-ALPHABETA-D-HEPTOSE-7-PHOSPHATE|
p10
I14
sV|1-L-MYO-INOSITOL-1-P|
p11
I69
sV|CPD-10225|
p12
I16
sV|POLY-HYDROXYLATED-TETRAKETIDE-PYRONE|
p13
I5
sV|CPD-4576|
p14
I98
sV|APIGENIN-7-O-NEOHESPERIDOSIDE|
p15
I4
sV|CPD-290|
p16
I2
sV|CPD-8676|
p17
I3
sV|CPD-15088|
p18
I10
sV|CPD-13384|
p19
I16
sV|CPD-9320|
p20
I8
sV|CPD66-68|
p21
I6
sV|Oxidized-hydrogenase-3|
p22
I2
sV|CPD-12953|
p23
I15
sV|CPD-15963|
p24
I18
sV|DEOXYAMIDINOPROCLAVAMINATE|
p25
I14
sV|CPD-15262|
p26
I12
sV|CPD-12495|
p27
I40
sV|CPD-15|
p28
I30
sV|CPD-12615|
p29
I16
sV|Large-branched-glucans|
p30
I10
sV|CPD-10164|
p31
I14
sV|ENT-KAUR-16-EN-19-AL|
p32
I38
sV|CPD-11930|
p33
I12
sV|CPD-11965|
p34
I6
sV|CPD-981|
p35
I8
sV|CPD-9426|
p36
I7
sV|CPD-13957|
p37
I21
sV|CPD-12782|
p38
I18
sV|23-DIPHOSPHOGLYCERATE|
p39
I6
sV|DsrE-Persulfides|
p40
I8
sV|LysW-L-glutamate-5-phosphate|
p41
I16
sV|2-METHYL-3-HYDROXY-BUTYRYL-COA|
p42
I20
sV|CPD-259|
p43
I3
sV|Peptidoglycans|
p44
I17
sV|CPD-4580|
p45
I98
sV|CPD-1021|
p46
I5
sV|CPD-4441|
p47
I22
sV|CPD-13079|
p48
I51
sV|CPD-7640|
p49
I32
sV|CPD-15654|
p50
I22
sV|ETHYLACETATE|
p51
I2
sV|CPD-14271|
p52
I30
sV|CPD-13606|
p53
I1
sV|IMIDAZOLE_ACETALDEHYDE|
p54
I4
sV|GlcA-Gal-Gal-Xyl-Proteins|
p55
I14
sV|CPD-4615|
p56
I6
sV|Thyroglobulin-3-5-diiodotyrosines|
p57
I15
sV|CPD-7383|
p58
I15
sV|L-ASCORBATE-6-PHOSPHATE|
p59
I3
sV|CRPB-all-trans-Retinol|
p60
I44
sV|CPD-7844|
p61
I4
sV|CPD-11830|
p62
I9
sV|RIBOSE-1P|
p63
I51
sV|CPDQT-426|
p64
I26
sV|CPD-7713|
p65
I24
sV|TETRACHLOROHYDROQUINONE|
p66
I10
sV|CPD-510|
p67
I4
sV|CPD-11530|
p68
I2
sV|CPD-13624|
p69
I20
sV|ALPHA-N-ACETYLNEURAMINYL-ETCETERA-GALACT|
p70
I4
sV|CPD-14818|
p71
I14
sV|N-ALPHA-ACETYLORNITHINE|
p72
I40
sV|R-3-Hydroxypalmitoyl-ACPs|
p73
I116
sV|3-7-DIMETHYLXANTHINE|
p74
I24
sV|CPD-1103|
p75
I5
sV|LYS-tRNAs|
p76
I19
sV|ALPHA-GLC-6-P|
p77
I170
sV|Oxidized-NrdH-Proteins|
p78
I34
sV|CPD-13722|
p79
I44
sV|CPD-16419|
p80
I3
sV|CPD-8657|
p81
I6
sV|CPD-924|
p82
I6
sV|SARCOSINE|
p83
I47
sV|CPD-14933|
p84
I51
sV|CPD-173|
p85
I15
sV|CPD-122|
p86
I8
sV|CPD-14211|
p87
I33
sV|CPD-12258|
p88
I18
sV|4-AMINO-5-IMIDAZOLE_CARBOXYLATE|
p89
I78
sV|CPD0-2363|
p90
I16
sV|CPD-11430|
p91
I2
sV|CPD-6975|
p92
I28
sV|CPD-16879|
p93
I6
sV|Nucleoside-Monophosphates|
p94
I18
sV|D-CARNITINE|
p95
I5
sV|ORNITHINE-LIPIDS|
p96
I1
sV|CDP|
p97
I146
sV|LAUROYLCOA-CPD|
p98
I3
sV|CPD-16668|
p99
I4
sV|33457-PENTAHYDROXY-8-METHOXYFLAVON|
p100
I20
sV|CPD-10813|
p101
I33
sV|CPD-12225|
p102
I4
sV|CPD-11665|
p103
I6
sV|CPD-9392|
p104
I8
sV|CPD-9369|
p105
I10
sV|CPD-16002|
p106
I2
sV|CPD-10172|
p107
I24
sV|Gal-Gal-Xyl-Proteins|
p108
I6
sV|S-ubiquitinyl-UCP-E2-L-cysteine|
p109
I18
sV|4-gamma-glutamylamino-butanoyl-BtrI|
p110
I12
sV|CPD-10175|
p111
I14
sV|UDP-D-GALACTO-14-FURANOSE|
p112
I71
sV|CPD-12572|
p113
I4
sV|NITROUS-OXIDE|
p114
I20
sV|PROTOPORPHYRINOGEN|
p115
I74
sV|CPD-2183|
p116
I40
sV|GUANIDOACETIC_ACID|
p117
I2
sV|CPD-14353|
p118
I40
sV|RHAMNULOSE-1P|
p119
I8
sV|cis-cis-D5-23-C42-2-ACPs|
p120
I362
sV|CPD-10539|
p121
I4
sV|CPD-7557|
p122
I24
sV|KDO2-LIPID-IVA|
p123
I20
sV|ISOCHORISMATE|
p124
I30
sV|GALACTOSE-1P|
p125
I40
sV|DIHYDROXYPENTANEDIONE|
p126
I22
sV|CPD-16722|
p127
I42
sV|CPD1F-437|
p128
I132
sV|5-O-INDOL-3-YLACETYL-MYO-ETCETERA|
p129
I9
sV|Reduced-NrdH-Proteins|
p130
I34
sV|CPD0-2123|
p131
I10
sV|cis-cis-D15-27-C46-2-ACPs|
p132
I362
sV|CPD-10206|
p133
I24
sV|Protein-L-lysine|
p134
I12
sV|2Fe-2S-proteins|
p135
I9
sV|CARBOXYETHYL-3-5-CYCLOHEXADIENE-1-2-DIOL|
p136
I10
sV|CPD-10587|
p137
I56
sV|CPD-12670|
p138
I3
sV|Charged-SEC-tRNAs|
p139
I5
sV|Very-Long-Chain-3-Hydroxyacyl-CoAs|
p140
I6
sV|CPD-12970|
p141
I18
sV|GLYCOCHENODEOXYCHOLIC_ACID|
p142
I28
sV|3-P-HYDROXYPYRUVATE|
p143
I4
sV|CPD-719|
p144
I67
sV|CHOLESTEROL|
p145
I130
sV|CPD-9307|
p146
I8
sV|CPD-14861|
p147
I156
sV|CPD-12063|
p148
I32
sV|CPD0-181|
p149
I20
sV|TABERSONINE|
p150
I7
sV|CPD-367|
p151
I26
sV|CPD-671|
p152
I88
sV|CHLORITE|
p153
I4
sV|CPD66-21|
p154
I10
sV|L-DIHYDROXY-PHENYLALANINE|
p155
I94
sV|CPD-8083|
p156
I54
sV|CPD-8052|
p157
I8
sV|METHYLENETETRAHYDROMETHANOPTERIN|
p158
I36
sV|NICOTINAMIDE_RIBOSE|
p159
I24
sV|CPD-664|
p160
I1
sV|HYPOTAURINE|
p161
I11
sV|CPD-10458|
p162
I11
sV|3-oxo-cis-vaccenoyl-ACPs|
p163
I8
sV|CPD-14461|
p164
I24
sV|CPD-15886|
p165
I6
sV|CPD-1002|
p166
I4
sV|2K-4CH3-PENTANOATE|
p167
I36
sV|CPD-17081|
p168
I5
sV|HYDROXYBENZOQUINONE|
p169
I24
sV|CPD-3481|
p170
I16
sV|CPD-14139|
p171
I18
sV|L-THREO-3-METHYL-ASPARTATE|
p172
I52
sV|2-PROPENYL-GLUCOSINOLATE|
p173
I11
sV|STEARIC_ACID|
p174
I16
sV|CPD-10619|
p175
I6
sV|CPD-12683|
p176
I28
sV|Beta-D-Glucuronides|
p177
I2
sV|CPD-8165|
p178
I54
sV|CPD-12128|
p179
I1
sV|CPD-9734|
p180
I26
sV|Pre-tRNA-5-prime-half-molecules|
p181
I8
sV|Ribonucleoside-Diphosphates|
p182
I18
sV|Tyr-S-NovH|
p183
I8
sV|CPD-10413|
p184
I2
sV|CPD-13647|
p185
I4
sV|CPD-6996|
p186
I4
sV|CPD-11517|
p187
I36
sV|CPD-12362|
p188
I5
sV|CPD-8696|
p189
I10
sV|CPD-16776|
p190
I9
sV|CPD-16849|
p191
I12
sV|N-Acylsphingosine|
p192
I19
sV|Myristoyl-ACPs|
p193
I129
sV|CPD-9955|
p194
I14
sV|CPD-8912|
p195
I7
sV|CPD-464|
p196
I24
sV|FADH2|
p197
I197
sV|CPD-8074|
p198
I54
sV|CPD-8838|
p199
I9
sV|CPD-14261|
p200
I16
sV|ACETONE|
p201
I47
sV|CPD-15940|
p202
I8
sV|RHAMNOSE|
p203
I8
sV|cis-cis-D15-33-C52-2-ACPs|
p204
I362
sV|24-2-N-linked-Glycan|
p205
I12
sV|CPD-7166|
p206
I40
sV|CPD-15576|
p207
I8
sV|PHENYLACETALDEHYDE|
p208
I69
sV|CPD-14982|
p209
I7
sV|334578-HEXAHYDROXYFLAVONE|
p210
I15
sV|CPD-8621|
p211
I38
sV|CPD-196|
p212
I34
sV|CPD0-1449|
p213
I2
sV|CPD-15283|
p214
I29
sV|5-HYDROXYISOURATE|
p215
I8
sV|2-AMINO-5-OXOCYCLOHEX-1-ENECARBOXYL-COA|
p216
I1
sV|CPD-7221|
p217
I6
sV|Co-chaperone-SP-2Fe2S-Complex|
p218
I18
sV|CPD-12127|
p219
I1
sV|6Z8E10E14Z-5S12R-512-DIHYDROXYI|
p220
I5
sV|CPD-10034|
p221
I13
sV|PRPP|
p222
I155
sV|CPD-10836|
p223
I7
sV|CPD-8592|
p224
I8
sV|UROPORPHYRINOGEN-III|
p225
I80
sV|CPD-8721|
p226
I12
sV|CPD-6443|
p227
I49
sV|CPD-13430|
p228
I16
sV|CPD-7903|
p229
I1
sV|CPD-7108|
p230
I3
sV|CPD-9870|
p231
I28
sV|CPD-5601|
p232
I4
sV|14-DICHLOROBENZENE-DIHYDRODIOL|
p233
I12
sV|CPD-319|
p234
I30
sV|CPD-14156|
p235
I36
sV|CPD-14977|
p236
I14
sV|CPD-11496|
p237
I6
sV|CREATINE|
p238
I7
sV|CPD-1836|
p239
I56
sV|CPD-13022|
p240
I33
sV|CPD-14739|
p241
I6
sV|CPD-15326|
p242
I10
sV|Porphyrans|
p243
I5
sV|N-4-aminobutylidene-eIF5A-lysine|
p244
I8
sV|CPD-10227|
p245
I12
sV|CPD-15496|
p246
I11
sV|CPD-8204|
p247
I1
sV|FERRICYTOCHROME-B5|
p248
I8
sV|CHOLINE|
p249
I36
sV|IMIDAZOLE-LACTATE|
p250
I3
sV|CPD-4404|
p251
I12
sV|CPD-13830|
p252
I15
sV|CPD-10069|
p253
I26
sV|CPD-292|
p254
I8
sV|Holo-AsbD-Proteins|
p255
I36
sV|CHOLANATE2|
p256
I12
sV|CPD-734|
p257
I18
sV|1516-DIHYDROBILIVERDIN|
p258
I4
sV|CPD-14096|
p259
I26
sV|CPD-9588|
p260
I2
sV|CPD-10363|
p261
I6
sV|CPD-569|
p262
I6
sV|CPD-7010|
p263
I3
sV|CPD-7733|
p264
I14
sV|CPD-783|
p265
I14
sV|AMINO-HYDROXYMETHYL-METHYL-PYR-P|
p266
I31
sV|CPD-12911|
p267
I68
sV|CPD-12613|
p268
I16
sV|CPD-14428|
p269
I3
sV|CPD-12784|
p270
I18
sV|CPD-14278|
p271
I30
sV|CPD-16531|
p272
I3
sV|CPD-612|
p273
I6
sV|GAP|
p274
I779
sV|CPD-9090|
p275
I16
sV|CPD-13955|
p276
I14
sV|CPD-983|
p277
I8
sV|CPD-14948|
p278
I8
sV|CPD-4202|
p279
I20
sV|Chondroitin-Sulfate-C|
p280
I48
sV|SULOCHRIN|
p281
I12
sV|BENZYLSUCCINYL-COA|
p282
I10
sV|CPD-4443|
p283
I8
sV|CPD-10358|
p284
I2
sV|GLYCOLLATE|
p285
I55
sV|CPD-1023|
p286
I10
sV|CPD-9406|
p287
I26
sV|CPD-634|
p288
I78
sV|NAD-P-OR-NOP|
p289
I1812
sV|CPD-15300|
p290
I1
sV|SACCHAROPINE|
p291
I24
sV|PHTHALATE|
p292
I8
sV|DIAMINO-OH-PHOSPHORIBOSYLAMINO-PYR|
p293
I58
sV|245-DNOL|
p294
I30
sV|CPD-14486|
p295
I18
sV|TRYPTAMINE|
p296
I92
sV|2-DEHYDRO-3-DEOXY-D-GLUCONATE|
p297
I60
sV|CPD-4617|
p298
I3
sV|CPD-9675|
p299
I18
sV|CPD-16637|
p300
I12
sV|Ceramides|
p301
I2
sV|ETHYLENE-CMPD|
p302
I25
sV|CPDQT-420|
p303
I16
sV|CPD-10198|
p304
I36
sV|CPD-7846|
p305
I32
sV|1-O6-O-DIGALLOYL-BETA-D-GLUCOSE|
p306
I15
sV|CPD-13626|
p307
I14
sV|CALCITRIOL|
p308
I3
sV|CPD-12089|
p309
I18
sV|CPD-68|
p310
I11
sV|Methylated-methyl-acceptors|
p311
I65
sV|CPD-14816|
p312
I14
sV|CPD-15965|
p313
I18
sV|CPD-15260|
p314
I6
sV|CPD-10603|
p315
I1
sV|CPD-13524|
p316
I73
sV|CPD-922|
p317
I3
sV|CPD-12476|
p318
I6
sV|1-4-alpha-D-Glucan|
p319
I56
sV|CPD-14213|
p320
I11
sV|CPD-11558|
p321
I5
sV|CPD-9748|
p322
I9
sV|CPD-15670|
p323
I10
sV|CPD-14242|
p324
I10
sV|CPD-8075|
p325
I108
sV|CPD-13354|
p326
I3
sV|CPD0-2338|
p327
I10
sV|3-OXODODECANOATE|
p328
I10
sV|CPD-7417|
p329
I8
sV|GLT-tRNAs|
p330
I29
sV|GLYCEROL|
p331
I45
sV|Rhamnogalacturonans-I|
p332
I22
sV|1-7-DIMETHYLXANTHINE|
p333
I21
sV|TARTRONATE-S-ALD|
p334
I18
sV|Methanofurans|
p335
I20
sV|Charged-PHE-tRNAs|
p336
I19
sV|CPD-13604|
p337
I1
sV|COPROPORPHYRINOGEN_III|
p338
I74
sV|CPD-12272|
p339
I1
sV|CPD-8717|
p340
I5
sV|CPD-14266|
p341
I2
sV|Alkanes|
p342
I19
sV|S-ACETYLPHOSPHOPANTETHEINE|
p343
I4
sV|CPD-9367|
p344
I1
sV|CPD-10850|
p345
I14
sV|6-METHOXYMELLEIN|
p346
I2
sV|N-Malonyl-L-Cysteine-S-Conjugate|
p347
I7
sV|Sophorosyloxy-FAs-O-6-Acet|
p348
I12
sV|CPD0-938|
p349
I18
sV|CPD-10177|
p350
I4
sV|CPD-12064|
p351
I36
sV|Mannosyl5-N-Glycans|
p352
I6
sV|CPD-11287|
p353
I2
sV|CPD-2181|
p354
I40
sV|CPD-14355|
p355
I28
sV|CPD-14625|
p356
I18
sV|cis-cis-D3-21-C40-2-ACPs|
p357
I362
sV|CPD-13109|
p358
I6
sV|CPD-10712|
p359
I6
sV|CIS-34-DIHYDROXYCYCLOHEXA-162-DIENE-|
p360
I4
sV|CPD-9715|
p361
I7
sV|CPD-9762|
p362
I17
sV|GERANYLGERANYL-PP|
p363
I168
sV|CPD-15477|
p364
I20
sV|3-HYDROXY-3-4-METHYLPENT-3-EN-1-YLG-COA|
p365
I16
sV|CPD-16720|
p366
I14
sV|CPD-16826|
p367
I12
sV|LUTEOLIN-7-O-BETA-D-GLUCURONIDE|
p368
I10
sV|CPD-6202|
p369
I12
sV|CPD-9250|
p370
I15
sV|CPD-11967|
p371
I3
sV|L-1-PHOSPHATIDYL-ETHANOLAMINE|
p372
I21
sV|CPD1G-852|
p373
I181
sV|CPD-10204|
p374
I60
sV|CPD-16483|
p375
I9
sV|CPD-10620|
p376
I1
sV|CPD-13094|
p377
I10
sV|2C-METH-D-ERYTHRITOL-CYCLODIPHOSPHATE|
p378
I32
sV|CPD-10589|
p379
I56
sV|CPD-12672|
p380
I28
sV|CPD-12111|
p381
I2
sV|CPD-14707|
p382
I3
sV|Lipid-Alcohols|
p383
I24
sV|CPD-12498|
p384
I8
sV|LysW-C-Terminal-L-Glutamate|
p385
I34
sV|VINYL-CHLORIDE|
p386
I6
sV|INDOLE|
p387
I29
sV|INOSITOL-1-3-4-TRIPHOSPHATE|
p388
I24
sV|CPD-7202|
p389
I50
sV|CPD-4101|
p390
I102
sV|CPD-10057|
p391
I18
sV|TEREPHTHALATE|
p392
I8
sV|3-SULFINOALANINE|
p393
I10
sV|CPD-14104|
p394
I18
sV|Glucosylated-Glucose-Acceptors|
p395
I35
sV|CPD-233|
p396
I18
sV|CPD-14467|
p397
I10
sV|DIACETYLCHITOBIOSE-6-PHOSPHATE|
p398
I1
sV|CPD-17103|
p399
I18
sV|CPD1G-773|
p400
I362
sV|PSICOSELYSINE|
p401
I2
sV|CPD-10091|
p402
I18
sV|ALPHAALPHA-TREHALOSE-66-BISMYCOLATE|
p403
I181
sV|Dermatan-NacGal|
p404
I3
sV|CPD-498|
p405
I10
sV|CPD-12745|
p406
I12
sV|CPD-3483|
p407
I4
sV|CPD-12020|
p408
I3
sV|CPD-15229|
p409
I22
sV|CPD-9156|
p410
I16
sV|CPD-17083|
p411
I4
sV|HSO3|
p412
I34
sV|CPD-9249|
p413
I24
sV|INDOXYL|
p414
I8
sV|DIHYDRO-NEO-PTERIN|
p415
I47
sV|OXALATE|
p416
I37
sV|CPD-11853|
p417
I6
sV|CPD-9736|
p418
I26
sV|Dermatan-NAcGal-4-sulfates|
p419
I6
sV|CPD-531|
p420
I2
sV|CPD-10411|
p421
I5
sV|CPD-8690|
p422
I1
sV|ADENOSINE_DIPHOSPHATE_RIBOSE|
p423
I4
sV|CPD-12360|
p424
I5
sV|DIHYDROCOUMARIN|
p425
I2
sV|CPD-12335|
p426
I6
sV|CPD-8910|
p427
I14
sV|CPD-4941|
p428
I22
sV|CPD-8076|
p429
I81
sV|CPD-14839|
p430
I12
sV|HYDRAZINE|
p431
I12
sV|Mycobacterial-Arabinogalactans|
p432
I921
sV|DELTA1-PIPERIDEINE-2-6-DICARBOXYLATE|
p433
I56
sV|1-PHOSPHATIDYL-1D-MYO-INOSITOL-35-BISPH|
p434
I17
sV|CPD66-80|
p435
I24
sV|CPD-7066|
p436
I14
sV|CPD-15946|
p437
I16
sV|CPD-14263|
p438
I16
sV|CPD-440|
p439
I18
sV|CPD-8050|
p440
I4
sV|CPD-7164|
p441
I14
sV|CPD-11760|
p442
I3
sV|CPD-14289|
p443
I16
sV|CPD-14984|
p444
I6
sV|Aminated-Amine-Donors|
p445
I81
sV|DODECANOATE|
p446
I70
sV|Poly-Hydroxybutyrate|
p447
I4
sV|CPD-11464|
p448
I10
sV|CPD-12193|
p449
I1
sV|Malonyl-acp-methyl-ester|
p450
I20
sV|CPD-15004|
p451
I2
sV|N-HYDROXYL-TRYPTAMINE|
p452
I26
sV|UDP-SULFOQUINOVOSE|
p453
I2
sV|CPD-6441|
p454
I3
sV|CPD-3422|
p455
I6
sV|CPD-13432|
p456
I5
sV|PROGESTERONE|
p457
I11
sV|CPD-6963|
p458
I2
sV|CPD-14209|
p459
I22
sV|CPD-13909|
p460
I8
sV|L-3-HYDROXYACYL-COA|
p461
I58
sV|Oxidized-Rusticyanins|
p462
I15
sV|CPD-9935|
p463
I2
sV|CPD-4142|
p464
I68
sV|cis-cis-D9-27-3-hydroxyC46-2-ACPs|
p465
I362
sV|CPD-14394|
p466
I8
sV|CPD-10856|
p467
I14
sV|CPD-12866|
p468
I68
sV|CPD-1834|
p469
I56
sV|CPD66-64|
p470
I8
sV|CPD66-39|
p471
I23
sV|Perillyl-Alcohols|
p472
I2
sV|CPD-280|
p473
I28
sV|CPD-15324|
p474
I10
sV|CPD-13020|
p475
I22
sV|OXALO-SUCCINATE|
p476
I22
sV|BETAINE_ALDEHYDE|
p477
I16
sV|MALTOTRIOSE|
p478
I26
sV|CPD-3605|
p479
I3
sV|CPD-12018|
p480
I6
sV|CPD-506|
p481
I30
sV|CPD-13380|
p482
I78
sV|CPD-13885|
p483
I9
sV|CPD-11742|
p484
I36
sV|CPD-8202|
p485
I6
sV|S-PHOSPHOLACTATE|
p486
I8
sV|CPD-4406|
p487
I4
sV|PELARGONIDIN-CMPD|
p488
I4
sV|Cytochromes-C554-Ox|
p489
I4
sV|CPD-294|
p490
I168
sV|CPD-6681|
p491
I24
sV|CPD-12451|
p492
I6
sV|CPD-14094|
p493
I116
sV|NAPHTHALENE|
p494
I5
sV|CPD-9951|
p495
I14
sV|CPD-8159|
p496
I20
sV|CPD-12644|
p497
I2
sV|CPD-7731|
p498
I3
sV|CPD-10468|
p499
I6
sV|CPD-567|
p500
I10
sV|CPD-11|
p501
I10
sV|B-Gal-14-NacGlc-R|
p502
I63
sV|CPD-16537|
p503
I16
sV|4-IMIDAZOLEACETATE|
p504
I2
sV|CPD-1943|
p505
I8
sV|CPD-13700|
p506
I98
sV|CPD-12786|
p507
I18
sV|FARNESYL-PP|
p508
I298
sV|UDP-GLUCURONATE|
p509
I258
sV|CPD-649|
p510
I42
sV|L-RIBULOSE-5-P|
p511
I30
sV|CPD-331|
p512
I30
sV|12-OXO-CIS-9-DODECENOATE|
p513
I24
sV|Chondroitin-Sulfate-A|
p514
I48
sV|CPD1F-135|
p515
I8
sV|S-ADENOSYLMETHIONINE|
p516
I5598
sV|Methylated-corrinoid-Fe-S-Proteins|
p517
I26
sV|L-gulopyranose|
p518
I8
sV|R-3-hydroxylignoceroyl-ACPs|
p519
I362
sV|CPD-7649|
p520
I4
sV|CPD-15650|
p521
I11
sV|CPD-15195|
p522
I50
sV|CPD-632|
p523
I10
sV|CPD-12045|
p524
I1
sV|CPD-12032|
p525
I12
sV|CPD-7644|
p526
I32
sV|6-Dimethylallyladenosine37-tRNAs|
p527
I8
sV|CPD1G-277|
p528
I377
sV|ISOGLUTAMINE|
p529
I7
sV|CPD-12724|
p530
I14
sV|CPD-9043|
p531
I28
sV|CPD-10447|
p532
I44
sV|IPC|
p533
I24
sV|CPD-8097|
p534
I78
sV|18-HYDROXYOLEATE|
p535
I64
sV|CPDQT-422|
p536
I9
sV|cis-delta17-3-hydroxyC36-ACPs|
p537
I362
sV|CPD-7078|
p538
I9
sV|CPD-9152|
p539
I30
sV|3-DEHYDRO-ALPHA-GLUCOSE|
p540
I8
sV|CPD1A0-6117|
p541
I24
sV|DIHYDROXYPHENYLGLYCOLALDEHYDE|
p542
I48
sV|CPD-11534|
p543
I20
sV|N1-ACETYLSPERMINE|
p544
I8
sV|19-HYDROXYTESTOSTERONE|
p545
I4
sV|D-MYO-INOSITOL-4-PHOSPHATE|
p546
I4
sV|3-oxo-myristoyl-ACPs|
p547
I121
sV|CPDQT-404|
p548
I18
sV|CPD-14814|
p549
I14
sV|Teichoic-P-Gro|
p550
I21
sV|CPD-7866|
p551
I22
sV|CPD-13223|
p552
I9
sV|CPD-14215|
p553
I22
sV|I-antigens|
p554
I9
sV|CPD-14240|
p555
I12
sV|CPD-16426|
p556
I6
sV|CPD-177|
p557
I41
sV|AMINO-HYDROXYMETHYL-METHYLPYRIMIDINE-PP|
p558
I30
sV|BENZYL-ALCOHOL|
p559
I88
sV|cis-D21-39-oxo-40-Me-C59-1-ACPs|
p560
I362
sV|GLUCOSAMINATE|
p561
I2
sV|CPD-7601|
p562
I8
sV|PHE|
p563
I159
sV|CPD-7415|
p564
I4
sV|CPD-13218|
p565
I9
sV|D-form-FeS-Cluster-Scaffold-Proteins|
p566
I18
sV|tRNAs-with-queuine|
p567
I3
sV|3-O-BETA-GLUCOSYL-2-OXINDOLE-3-ACETYL-|
p568
I3
sV|CDP-ETHANOLAMINE|
p569
I4
sV|CPD-12221|
p570
I2
sV|D-mannopyranose|
p571
I9
sV|OLIGOSACCHARIDE-DIPHOSPHODOLICHOL|
p572
I14
sV|FERULIC-ACID|
p573
I92
sV|10-DEOXYSARPAGINE|
p574
I34
sV|3-HYDROXY-5917-TRIOXO-45910-DISECOA|
p575
I28
sV|CPD-16908|
p576
I12
sV|VELLOSIMINE|
p577
I34
sV|CPD-13152|
p578
I8
sV|CPD-15297|
p579
I1
sV|CPD-17014|
p580
I21
sV|CPD-14627|
p581
I18
sV|5-AMINO-LEVULINATE|
p582
I22
sV|CPD-2187|
p583
I54
sV|CPD-8708|
p584
I5
sV|CPD-14357|
p585
I28
sV|CPD1F-133|
p586
I24
sV|cis-cis-D5-17-3-oxo-C36-2-ACPs|
p587
I362
sV|META-XYLENE|
p588
I5
sV|2-3-dihydroxypropane-1-sulfonate|
p589
I3
sV|Charged-CYS-tRNAs|
p590
I20
sV|CPD-11870|
p591
I7
sV|CPD0-2190|
p592
I6
sV|OXYGEN-MOLECULE|
p593
I11454
sV|CPD-15475|
p594
I12
sV|L-seryl-SEC-tRNAs|
p595
I10
sV|CPD0-1812|
p596
I9
sV|FE+2|
p597
I56
sV|CPD-9207|
p598
I13
sV|CPD-16759|
p599
I1
sV|CPD-16726|
p600
I14
sV|CPD-16828|
p601
I12
sV|ALLYL-ALCOHOL|
p602
I9
sV|TAGATOSE-1-6-DIPHOSPHATE|
p603
I24
sV|CPD-9438|
p604
I16
sV|CPD-10622|
p605
I7
sV|CPD1F-129|
p606
I63
sV|CPD-8715|
p607
I10
sV|CPD-13092|
p608
I10
sV|3-2-METHYLTHIOETHYLMALIC-ACID|
p609
I8
sV|CPD-13254|
p610
I14
sV|ALPHA-D-GALACTOSE|
p611
I38
sV|1-PHOSPHATIDYL-1D-MYO-INOSITOL-34-BISPH|
p612
I31
sV|CPD-14705|
p613
I6
sV|CPD-686|
p614
I24
sV|3-METHYLXANTHINE|
p615
I30
sV|2-AMINOPHENOL|
p616
I4
sV|tRNAPhe-Containing-methylwyosine-37|
p617
I3
sV|CPD-8222|
p618
I18
sV|CPD-3618|
p619
I21
sV|CPD-4562|
p620
I6
sV|CPD-7200|
p621
I20
sV|NITRITE|
p622
I101
sV|CPD66-25|
p623
I6
sV|CPD-10055|
p624
I18
sV|Gramicidin-S-synthetases|
p625
I4
sV|CPD-4821|
p626
I36
sV|TARTRATE|
p627
I9
sV|2-HYDROXYFORMONONETIN|
p628
I6
sV|TYR|
p629
I206
sV|HYDROXY-UREA|
p630
I10
sV|CPD-12202|
p631
I14
sV|Guanine34-in-tRNAs|
p632
I3
sV|3-KETOACYL-COA|
p633
I56
sV|CPD-14465|
p634
I10
sV|CPD-1861|
p635
I26
sV|D-Ribofuranose|
p636
I52
sV|CPD-15631|
p637
I16
sV|CPD1G-771|
p638
I362
sV|CPD-7616|
p639
I4
sV|3-HYDROXY-2-OXINDOLE-3-ACETYL-ASP|
p640
I6
sV|E-PHENYLITACONYL-COA|
p641
I10
sV|MESO-TARTRATE|
p642
I1
sV|PPI|
p643
I4501
sV|CPD-15999|
p644
I10
sV|APO-CITRATE-LYASE|
p645
I4
sV|ACETYL-ETCETERA-GALACTOSYLPROTEOGLYCAN|
p646
I2
sV|CPD-12565|
p647
I12
sV|CPD-14952|
p648
I3
sV|CPD-13805|
p649
I6
sV|PRO-tRNAs|
p650
I19
sV|NAPHTHOL|
p651
I4
sV|CPD-7635|
p652
I32
sV|CPD-7592|
p653
I12
sV|CPD-6992|
p654
I3
sV|CPD-7969|
p655
I33
sV|CHLOROHYDROQUINONE|
p656
I20
sV|CPD-533|
p657
I57
sV|CPD-4162|
p658
I34
sV|2-DEHYDRO-3-DEOXY-D-GALACTONATE|
p659
I16
sV|CPD-8692|
p660
I12
sV|trans-D2-cis-cis-D7-25-C44-3-ACPs|
p661
I362
sV|RIFAMYCIN-B|
p662
I12
sV|CPD-468|
p663
I77
sV|CPD-4943|
p664
I33
sV|CPD-8078|
p665
I81
sV|CPD-14529|
p666
I2
sV|BARBITURATE|
p667
I4
sV|CPD-15944|
p668
I16
sV|Enoylpimeloyl-ACP-methyl-esters|
p669
I20
sV|CPD-15933|
p670
I16
sV|CPD-12630|
p671
I26
sV|CPD-11528|
p672
I36
sV|CPD66-82|
p673
I8
sV|CPD-7031|
p674
I16
sV|CPD-7064|
p675
I7
sV|CPD-14687|
p676
I32
sV|CPD-9972|
p677
I1
sV|CALCIDIOL|
p678
I6
sV|cis-19-CP-37-Mex-38-Me-C59-ACPs|
p679
I362
sV|CPD-8934|
p680
I5
sV|CPD-13383|
p681
I14
sV|CPD-16767|
p682
I2
sV|CPD-10679|
p683
I25
sV|GLUTARATE|
p684
I39
sV|L-THREONINE-O-3-PHOSPHATE|
p685
I2
sV|CPD-11466|
p686
I5
sV|2-OXOPROPYL-COM|
p687
I18
sV|CPD-10030|
p688
I13
sV|1-4-beta-Xylan|
p689
I11
sV|CPD-13516|
p690
I10
sV|CPD-12388|
p691
I26
sV|HEPARIN-GLUCOSAMINE-3-O-SULFATE|
p692
I11
sV|CPD-10832|
p693
I12
sV|CPD-12435|
p694
I4
sV|Citronellates|
p695
I6
sV|CPD-7170|
p696
I20
sV|CPD-13434|
p697
I15
sV|NICOTINAMIDE_NUCLEOTIDE|
p698
I58
sV|Agaroses|
p699
I11
sV|PHENOL|
p700
I3
sV|THYMINE|
p701
I4
sV|CPD-1242|
p702
I4
sV|CPD-12297|
p703
I9
sV|CPD-8725|
p704
I6
sV|2-AMINO-3-3-OXOPROP-2-ENYL-BUT-2-ENEDI|
p705
I44
sV|Heparan-sulfate-L-iduronate|
p706
I22
sV|CPD-12308|
p707
I18
sV|CPD-11408|
p708
I14
sV|CPD-14396|
p709
I12
sV|LOGANIN|
p710
I42
sV|Nitriles|
p711
I3
sV|CPDQT-428|
p712
I91
sV|CIS-4-HYDROXY-D-PROLINE|
p713
I6
sV|CPD-15012|
p714
I10
sV|CPD-10854|
p715
I14
sV|CPD-10809|
p716
I34
sV|CPD66-62|
p717
I8
sV|CPD-14651|
p718
I8
sV|CPD1F-119|
p719
I12
sV|1-4-HYDROXYPHENYL-2-METHYLAMINOETHAN|
p720
I7
sV|CPD-8898|
p721
I34
sV|CPD-12868|
p722
I68
sV|CPD-13026|
p723
I70
sV|L-GLYCERALDEHYDE|
p724
I10
sV|SELENITE|
p725
I8
sV|CPD-15322|
p726
I5
sV|2-METHYL-ACETO-ACETYL-COA|
p727
I20
sV|cis-cis-D13-25-C44-2-ACPs|
p728
I362
sV|GAMMA-GLUTAMYL-PUTRESCINE|
p729
I6
sV|SE-2|
p730
I5
sV|MESACONATE|
p731
I40
sV|L-CANALINE|
p732
I8
sV|CPD-10223|
p733
I76
sV|CPD-12846|
p734
I8
sV|METHYLAMINE|
p735
I81
sV|CPD-8255|
p736
I2
sV|CPD-8678|
p737
I20
sV|LysW-L-lysine|
p738
I18
sV|CPD-296|
p739
I6
sV|1235-TETRAHYDROXYBENZENE|
p740
I20
sV|cis-D19-37-MOH-38-Me-C57-1-ACPs|
p741
I362
sV|CPD-8607|
p742
I38
sV|C3|
p743
I31
sV|CPD-13887|
p744
I64
sV|CPD-14092|
p745
I50
sV|1-AMINO-PROPAN-2-ONE-3-PHOSPHATE|
p746
I14
sV|CPD-730|
p747
I36
sV|CPD-143|
p748
I8
sV|CPD-14986|
p749
I6
sV|3-hydroxy-cis-D7-tetraecenoyl-ACPs|
p750
I16
sV|GLYCERATE|
p751
I77
sV|CPD-565|
p752
I16
sV|CPD-9953|
p753
I14
sV|CPD-8157|
p754
I20
sV|Carboxylated-Biotinylated-MadF-Proteins|
p755
I6
sV|CPD-787|
p756
I14
sV|CPD-12915|
p757
I68
sV|CPD-16535|
p758
I16
sV|CPD-13951|
p759
I8
sV|FORMYL-ISOGLUTAMINE|
p760
I14
sV|PROTOHEME|
p761
I18
sV|CPD-4587|
p762
I8
sV|N-ACETYL-BETA-GLUCOSAMINYLAMINE|
p763
I2
sV|OXAMATE|
p764
I4
sV|CPD-845|
p765
I8
sV|CPD-15217|
p766
I6
sV|CPD1F-137|
p767
I70
sV|CPD-12482|
p768
I3
sV|METHYLENE-THF-GLU-N|
p769
I347
sV|236-TRICHLOROHYDROQUINONE|
p770
I10
sV|34-DIHYDROXYPHENYLPYRUVATE|
p771
I18
sV|Glucosyl-acyl-sphinganines|
p772
I36
sV|Me-CoM|
p773
I23
sV|CPD-12030|
p774
I32
sV|cis-cis-D7-25-C44-2-ACPs|
p775
I362
sV|DEPHOSPHO-COA|
p776
I19
sV|CPD-1063|
p777
I18
sV|CPD-11909|
p778
I7
sV|CPD-15533|
p779
I8
sV|10-HYDROXYDIHYDROSANGUINARINE|
p780
I32
sV|CPD-9041|
p781
I28
sV|trans-D2-cis-cis-D17-35-C54-3-ACPs|
p782
I362
sV|CPD-8095|
p783
I8
sV|CPD-1908|
p784
I4
sV|CPD-14519|
p785
I20
sV|CPD-7842|
p786
I9
sV|INDOL-YLACETYL-MYO-INOSITOL-ARABINOSIDE|
p787
I3
sV|CPD-11894|
p788
I12
sV|CPD-9862|
p789
I14
sV|CPD-13688|
p790
I4
sV|CPD-82|
p791
I3
sV|CPD-235|
p792
I106
sV|CPD-13622|
p793
I18
sV|CPD1A0-6111|
p794
I24
sV|CPD-1090|
p795
I22
sV|Jasmonoyl-Valines|
p796
I7
sV|CPD-8131|
p797
I4
sV|3-INDOLYLGLYCOLALDEHYDE|
p798
I48
sV|CPD-14812|
p799
I14
sV|Glucosinolates|
p800
I3
sV|CPD-6124|
p801
I6
sV|CPD-7864|
p802
I2
sV|PigH|
p803
I22
sV|CPD-7737|
p804
I6
sV|CPD-9189|
p805
I6
sV|6C-Glc-2-hydroxyeriodictyol|
p806
I10
sV|CPD-15231|
p807
I11
sV|L-1-LYSOPHOSPHATIDATE|
p808
I17
sV|3-HYDROXY-N-METHYL-S-COCLAURINE|
p809
I20
sV|FRUCTOSELYSINE|
p810
I4
sV|D-GLUCOSAMINE-6-P|
p811
I80
sV|CPD1G-159|
p812
I1
sV|CPD-9562|
p813
I2
sV|CPD-11441|
p814
I2
sV|CPD-16804|
p815
I1
sV|CPD-16873|
p816
I14
sV|Nylon-6|
p817
I6
sV|CPD-3021|
p818
I8
sV|CPD-8957|
p819
I6
sV|CPD-474|
p820
I63
sV|Peptidoglycan-with-DAP-pentapeptide|
p821
I12
sV|N-terminal-specific-UCP-E2-L-cysteine|
p822
I12
sV|CPD-10768|
p823
I26
sV|CPD-13575|
p824
I19
sV|3-3-HAAs|
p825
I4
sV|CPD-9872|
p826
I28
sV|5-KETO-4-DEOXY-D-GLUCARATE|
p827
I20
sV|CPD-10767|
p828
I26
sV|CPD-13793|
p829
I34
sV|ASCORBATE|
p830
I155
sV|LINAMARIN|
p831
I13
sV|b-Hydroxy-cis-D5-dodecenoyl-ACPs|
p832
I10
sV|Carboxylates|
p833
I29
sV|DIMETHYLARSINATE|
p834
I12
sV|CPD-2752|
p835
I17
sV|CPD-13462|
p836
I6
sV|GLY|
p837
I458
sV|trans-2-cis-5-dienoyl-CoA|
p838
I8
sV|Actinorhodin-Intermediate-3|
p839
I24
sV|CPD-12581|
p840
I3
sV|CPD-10667|
p841
I14
sV|CPD-2185|
p842
I60
sV|5-HYDROXYU34-TRNA|
p843
I1
sV|CPD-13150|
p844
I16
sV|trans-D2-cis-cis-D13-25-C44-3-ACPs|
p845
I362
sV|DIHYDROXY-BUTANONE-P|
p846
I50
sV|LINOLENIC_ACID|
p847
I90
sV|BACCATIN-III|
p848
I24
sV|Cis-Delta7-tetradecenoyl-ACPs|
p849
I16
sV|CPD-11876|
p850
I48
sV|CPD-7526|
p851
I14
sV|URACIL|
p852
I20
sV|CPD0-1068|
p853
I7
sV|CPD-16724|
p854
I42
sV|DUDP|
p855
I74
sV|CPD-397|
p856
I19
sV|PROSTAGLANDIN-H2|
p857
I20
sV|12-HYDROXYDIHYDROCHELIRUBINE|
p858
I32
sV|CARBON-MONOXIDE|
p859
I53
sV|CPD-2343|
p860
I20
sV|CPD-10707|
p861
I1
sV|CPD-9436|
p862
I8
sV|Non-Glucosylated-Glucose-Acceptors|
p863
I35
sV|Globin-Fragments|
p864
I18
sV|CPD-10267|
p865
I13
sV|Xyloglucans-Xylose|
p866
I10
sV|CPD-9407|
p867
I24
sV|Aporhodopsins|
p868
I28
sV|CPD-962|
p869
I4
sV|CPD-13090|
p870
I20
sV|3-OXO-DELTA46-CHOLYL-COA|
p871
I14
sV|CHLOROPHYLL-A|
p872
I22
sV|HMP|
p873
I14
sV|Stearoyl-ACPs|
p874
I204
sV|Guanine10-in-tRNA|
p875
I14
sV|25-DICHLORO-CISCIS-MUCONATE|
p876
I12
sV|DEOXY-RIBOSE-5P|
p877
I4
sV|CPD-6228|
p878
I36
sV|1-O-SINAPOYL-BETA-D-GLUCOSE|
p879
I46
sV|6-DEMETHYLSTERIGMATOCYSTIN|
p880
I4
sV|CPD-15720|
p881
I48
sV|CPD-16004|
p882
I2
sV|CPD1G-1345|
p883
I905
sV|CPD-10053|
p884
I38
sV|trans-D2-cis-cis-D11-29-C48-3-ACPs|
p885
I362
sV|CPD-6644|
p886
I5
sV|ACETYL-COA|
p887
I2203
sV|OX-COENZYME-F420|
p888
I1
sV|DGDP|
p889
I21
sV|CPD-438|
p890
I4
sV|MttC-Proteins|
p891
I2
sV|CPD-13328|
p892
I24
sV|CPD-12609|
p893
I16
sV|CPD-9536|
p894
I10
sV|CPD-10452|
p895
I11
sV|O-DICHLOROBENZENE|
p896
I1
sV|CPD-1863|
p897
I83
sV|CPD-15633|
p898
I46
sV|CPD-7406|
p899
I2
sV|CPD-3487|
p900
I4
sV|Metarhodopsins-II|
p901
I55
sV|CPD-14188|
p902
I10
sV|CPD-7610|
p903
I24
sV|CPD-651|
p904
I24
sV|CPD-14950|
p905
I3
sV|CIS-3-HEXENAL|
p906
I33
sV|5-O-METHYL-MYO-INOSITOL|
p907
I4
sV|CPD-10166|
p908
I21
sV|CPD-13001|
p909
I14
sV|2-HYDROXYSUCCINAMATE|
p910
I2
sV|NITRIC-OXIDE|
p911
I36
sV|CPD-17019|
p912
I14
sV|CPD-8701|
p913
I5
sV|CPD-8809|
p914
I1
sV|3-HYDROXYPHENYL-PROPIONATE|
p915
I5
sV|CPD-13985|
p916
I12
sV|CPD0-939|
p917
I9
sV|ACYL-SN-GLYCEROL-3P|
p918
I32
sV|CPD-535|
p919
I2
sV|PANTOYL-LACTONE|
p920
I4
sV|CPD-8914|
p921
I4
sV|CPD-14550|
p922
I96
sV|CPD-8706|
p923
I10
sV|Ecdysteroids-22P|
p924
I8
sV|L-CARNITINYL-COA|
p925
I9
sV|ISOBUTANOL|
p926
I13
sV|D-Fucoses|
p927
I4
sV|CPD-11951|
p928
I18
sV|CPD-7033|
p929
I2
sV|CPD-9382|
p930
I1
sV|Dermatan-Sulfate|
p931
I48
sV|S-5-HYDROXY-2-FUROYL-COA|
p932
I32
sV|CPD-12632|
p933
I1
sV|DEOXYGUANOSINE|
p934
I10
sV|CPD-11915|
p935
I9
sV|CPD-11764|
p936
I10
sV|2-C-METHYL-D-ERYTHRITOL-4-PHOSPHATE|
p937
I32
sV|Reduced-ferredoxins|
p938
I421
sV|CPD-8667|
p939
I10
sV|CPD-13970|
p940
I12
sV|CPD-8936|
p941
I5
sV|CPD-14358|
p942
I28
sV|CPD-15289|
p943
I4
sV|CPD-7901|
p944
I5
sV|CPD-7227|
p945
I7
sV|CPDQT-523|
p946
I5
sV|ERYTHRONATE-4P|
p947
I14
sV|CPD-400|
p948
I14
sV|CPD-11460|
p949
I10
sV|CPD-15000|
p950
I5
sV|CANAVANINOSUCCINATE|
p951
I6
sV|CDP-CHOLINE|
p952
I19
sV|CPD-12295|
p953
I8
sV|CPD-8854|
p954
I2
sV|CPD-8727|
p955
I10
sV|CPD-14908|
p956
I18
sV|Large-peptides|
p957
I12
sV|CPD-13436|
p958
I10
sV|D-GALACTONO-1-4-LACTONE|
p959
I2
sV|CPD-16838|
p960
I14
sV|CPD-10680|
p961
I5
sV|CPD-302|
p962
I10
sV|CPD-9610|
p963
I24
sV|CPD-7405|
p964
I4
sV|CPD-15837|
p965
I5
sV|CPD-11406|
p966
I36
sV|CPD-10852|
p967
I21
sV|CPD-9785|
p968
I5
sV|CPD-7590|
p969
I12
sV|2-Hexadecenoyl-ACPs|
p970
I116
sV|ASN-tRNAs|
p971
I23
sV|Retinochromes|
p972
I15
sV|CREATININE|
p973
I8
sV|HOP-2229-ENE|
p974
I23
sV|CPD-11700|
p975
I16
sV|CPD-15320|
p976
I10
sV|CHITOBIOSE|
p977
I28
sV|CPD-6745|
p978
I40
sV|CPD-9273|
p979
I18
sV|DsrC-L-Cysteine|
p980
I16
sV|CPD-12014|
p981
I8
sV|CPD-8257|
p982
I4
sV|CPD-8605|
p983
I94
sV|apo-malonate-decarboxylases|
p984
I1
sV|CPD-16938|
p985
I3
sV|4-METHYL-824-CHOLESTADIENOL|
p986
I98
sV|CPD-4402|
p987
I9
sV|CPD-4901|
p988
I6
sV|CPD-4886|
p989
I60
sV|CPD-9727|
p990
I26
sV|CPD-13162|
p991
I18
sV|CPD-943|
p992
I6
sV|CPD-15449|
p993
I24
sV|CPD-12422|
p994
I15
sV|CPD-145|
p995
I8
sV|CPD-14988|
p996
I7
sV|CPD-785|
p997
I14
sV|CPD-12136|
p998
I12
sV|91018-TRIHYDROXYSTEARATE|
p999
I24
sV|Jasmonoyl-Leucines|
p1000
I7
sV|STERIGMATOCYSTIN|
p1001
I4
sV|CPD-14522|
p1002
I20
sV|CPD-335|
p1003
I10
sV|CPD-618|
p1004
I18
sV|2-OCTAPRENYL-6-HYDROXYPHENOL|
p1005
I14
sV|CPD-14804|
p1006
I12
sV|CPD-13704|
p1007
I28
sV|CPD-13773|
p1008
I4
sV|CPD-11668|
p1009
I6
sV|cis-cis-D5-17-3-hydroxyC36-2-ACPs|
p1010
I362
sV|CPD-10356|
p1011
I3
sV|CPD-4581|
p1012
I98
sV|CPD-10597|
p1013
I10
sV|T2-DECENOYL-COA|
p1014
I19
sV|CIS-34-DEHYDROADIPYL-COA|
p1015
I14
sV|CPD-10158|
p1016
I2
sV|CPD-12480|
p1017
I21
sV|CH4|
p1018
I10
sV|CPD-9477|
p1019
I2
sV|L-ARA4N-MODIFIED-KDO2-LIPID-A|
p1020
I5
sV|EIF5A-LYSINE|
p1021
I4
sV|CPD-14859|
p1022
I64
sV|BENZYL-ISOTHIOCYANATE|
p1023
I3
sV|CPD-14150|
p1024
I2
sV|CPD-12036|
p1025
I8
sV|KIEVITONE-CPD|
p1026
I6
sV|ADENOSYLCOBINAMIDE-GDP|
p1027
I52
sV|CPD-458|
p1028
I34
sV|CPD-8093|
p1029
I60
sV|CPD-8068|
p1030
I6
sV|Cytosine-34-tRNA-Precursors|
p1031
I14
sV|CPD-12775|
p1032
I6
sV|CPD-9673|
p1033
I18
sV|CPD-7174|
p1034
I10
sV|CPD-672|
p1035
I18
sV|CPD-9047|
p1036
I28
sV|CPD-9499|
p1037
I4
sV|CPD-14931|
p1038
I4
sV|CPD-9864|
p1039
I30
sV|L-FUCULOSE|
p1040
I6
sV|CPD-2202|
p1041
I32
sV|CPD-14459|
p1042
I14
sV|DI-H-OROTATE|
p1043
I10
sV|CPD-15962|
p1044
I9
sV|CPD-1092|
p1045
I2
sV|trans-D2-cis-D9-montanoyl-ACPs|
p1046
I362
sV|CPD-10261|
p1047
I10
sV|4-TRIMETHYLAMMONIOBUTANAL|
p1048
I6
sV|cis-delta15-3-hydroxygheddoyl-ACPs|
p1049
I362
sV|CPD-7862|
p1050
I4
sV|INDOLE_LACTATE|
p1051
I1
sV|CPDQT-400|
p1052
I2
sV|PigJ|
p1053
I22
sV|MAL|
p1054
I542
sV|19-OXO-TESTOSTERONE|
p1055
I4
sV|CPD-8155|
p1056
I6
sV|CPD-16172|
p1057
I9
sV|CPD-13172|
p1058
I30
sV|CPD-9582|
p1059
I12
sV|CPD-15291|
p1060
I6
sV|CPD-4751|
p1061
I29
sV|CPD1G-120|
p1062
I10
sV|CPD-9521|
p1063
I10
sV|CPD-11507|
p1064
I4
sV|CPD-9746|
p1065
I9
sV|CPD-15033|
p1066
I1
sV|CPD-12096|
p1067
I4
sV|PHOSPHO-ENOL-PYRUVATE|
p1068
I750
sV|CPD-16700|
p1069
I16
sV|CPD-9911|
p1070
I32
sV|DPG|
p1071
I313
sV|CPD-3|
p1072
I6
sV|CPD-11447|
p1073
I24
sV|CPD-13577|
p1074
I1
sV|Thiocarboxylated-MPT-synthases|
p1075
I12
sV|CPD-7971|
p1076
I6
sV|COBINAMIDE|
p1077
I11
sV|CPD-12305|
p1078
I18
sV|CPD-8006|
p1079
I32
sV|Jasmonic-Acids|
p1080
I34
sV|CPD-5881|
p1081
I15
sV|CPD-476|
p1082
I26
sV|CHLOROACETALDEHYDE|
p1083
I6
sV|CPD-8955|
p1084
I6
sV|trans-D2-cis-cis-D15-27-C46-3-ACPs|
p1085
I362
sV|cis-delta11-3-oxo-melissoyl-ACPs|
p1086
I362
sV|CPD-14927|
p1087
I6
sV|CPD-10060|
p1088
I12
sV|CPD-14437|
p1089
I2
sV|3-METHYLTHIOPROPANALDOXIME|
p1090
I22
sV|CPD-8997|
p1091
I9
sV|CPD-184|
p1092
I58
sV|CPD-2750|
p1093
I34
sV|CPD-12587|
p1094
I16
sV|Actinorhodin-Intermediate-1|
p1095
I24
sV|PROTOPORPHYRIN_IX|
p1096
I74
sV|Ox-Thioredoxin|
p1097
I103
sV|CPD-9954|
p1098
I7
sV|HEXANAL|
p1099
I28
sV|Octanoylated-Gcv-H|
p1100
I6
sV|DTDP-RHAMNOSE|
p1101
I79
sV|CPD-10794|
p1102
I8
sV|CPD1G-106|
p1103
I362
sV|CPD-7524|
p1104
I14
sV|CPD-16553|
p1105
I6
sV|ONONIN|
p1106
I12
sV|6-HYDROXYPROTOPINE|
p1107
I32
sV|CPD-3141|
p1108
I53
sV|CPD-827|
p1109
I12
sV|CPD-9203|
p1110
I24
sV|DCPIP|
p1111
I51
sV|CPD-4604|
p1112
I11
sV|CPD-13227|
p1113
I8
sV|Nucleoside-Diphosphates|
p1114
I28
sV|Cyanophycin|
p1115
I16
sV|Phytoceramides|
p1116
I38
sV|a-2-oxoglutarate-dehydrogenase-E2-protei|
p1117
I8
sV|COBALT-FACTOR-III|
p1118
I28
sV|3-HYDROXY-ANTHRANILATE|
p1119
I52
sV|CPD-11964|
p1120
I14
sV|CPD-10257|
p1121
I12
sV|Amino-Acids-20|
p1122
I94
sV|3-HYDROXY-PROPIONATE|
p1123
I95
sV|CPD-9296|
p1124
I6
sV|Cis-vaccenoyl-ACPs|
p1125
I8
sV|CPD-12117|
p1126
I2
sV|CPD-744|
p1127
I6
sV|Decanoyl-ACPs|
p1128
I116
sV|8C-Glc-2-hydroxyeriodictyol|
p1129
I10
sV|CPD-15468|
p1130
I8
sV|Charged-PRO-tRNAs|
p1131
I19
sV|CPD-345|
p1132
I12
sV|CPD-14869|
p1133
I1
sV|36-DICHLOROCATECHOL|
p1134
I12
sV|CPD-7204|
p1135
I24
sV|LEUKOTRIENE-C4|
p1136
I10
sV|CPD-16684|
p1137
I1
sV|CPD-10051|
p1138
I17
sV|CPD-6882|
p1139
I12
sV|cis-cis-D13-25-3-hydroxyC44-2-ACPs|
p1140
I362
sV|CPD-12447|
p1141
I2
sV|CPD-6646|
p1142
I6
sV|QUESTIN|
p1143
I8
sV|CPD-9534|
p1144
I27
sV|HS|
p1145
I45
sV|Retinaldehyde-binding-proteins|
p1146
I22
sV|CPD-14416|
p1147
I4
sV|CPD-11872|
p1148
I21
sV|CPD-16782|
p1149
I8
sV|KDO2-LIPID-A|
p1150
I21
sV|CPD-10450|
p1151
I22
sV|CPD-9064|
p1152
I16
sV|CPD-7600|
p1153
I9
sV|CPD-7612|
p1154
I14
sV|CPD-13949|
p1155
I8
sV|CPD-15635|
p1156
I11
sV|S-ADENOSYLMETHIONINAMINE|
p1157
I14
sV|Beta-D-Glucosyloxy-FAs|
p1158
I10
sV|CPD-653|
p1159
I9
sV|CPD-12310|
p1160
I14
sV|CPD-13801|
p1161
I34
sV|CPD-16962|
p1162
I4
sV|CPD-4482|
p1163
I4
sV|CPD-4981|
p1164
I11
sV|CPD-15668|
p1165
I22
sV|Octanoyl-ACPs|
p1166
I119
sV|CPD-537|
p1167
I16
sV|CPD-14478|
p1168
I6
sV|CPD-13987|
p1169
I12
sV|HYDROGEN-PEROXIDE|
p1170
I1255
sV|CPD-13616|
p1171
I38
sV|CPD-9669|
p1172
I16
sV|trans-D2-cis-cis-D19-37-C56-3-ACPs|
p1173
I362
sV|CPD-12333|
p1174
I3
sV|HYDROXYLATED-TETRAKETIDE-PYRONE|
p1175
I10
sV|CPD-9483|
p1176
I3
sV|CPD-15032|
p1177
I2
sV|CPD-863|
p1178
I14
sV|Rhodoquinones|
p1179
I10
sV|CPD-15948|
p1180
I16
sV|CPD-4885|
p1181
I2
sV|CPD-16627|
p1182
I8
sV|CPD-7035|
p1183
I27
sV|CPD-13638|
p1184
I20
sV|CPD-12506|
p1185
I6
sV|CPD-72|
p1186
I56
sV|CPD-11571|
p1187
I8
sV|AMP|
p1188
I2732
sV|CPD-11524|
p1189
I36
sV|CPD-7996|
p1190
I32
sV|CPD-7965|
p1191
I5
sV|CPD-12634|
p1192
I18
sV|CPD-497|
p1193
I1
sV|CPD-12769|
p1194
I36
sV|CPD-11917|
p1195
I8
sV|CPD-14683|
p1196
I8
sV|CPD-14873|
p1197
I24
sV|CPD-13972|
p1198
I26
sV|Sphingoids|
p1199
I4
sV|TETRA-H-BIOPTERIN|
p1200
I15
sV|DEACETOXYVINDOLINE|
p1201
I14
sV|2-5-TRIPHOSPHORIBOSYL-3-DEPHOSPHO-|
p1202
I10
sV|CPD-12359|
p1203
I12
sV|CPD-11462|
p1204
I5
sV|Rhamnogalacturonan-D-galacturonate|
p1205
I5
sV|CPD-12384|
p1206
I18
sV|CPD-402|
p1207
I34
sV|3-2-CARBOXYPHENYLCATECHOL|
p1208
I12
sV|CPD-2281|
p1209
I2
sV|CPD-12199|
p1210
I18
sV|CPD-3424|
p1211
I15
sV|CPD-12464|
p1212
I4
sV|L-N2-2-CARBOXYETHYLARGININE|
p1213
I14
sV|HISTIDINAL|
p1214
I18
sV|TRANS-2-HEXENAL|
p1215
I25
sV|CPD-4750|
p1216
I64
sV|R-3-hydroxycerotoyl-ACPs|
p1217
I376
sV|CPD-8729|
p1218
I5
sV|CPD0-1699|
p1219
I6
sV|5-Methylcytosine-40-tRNA-Precursors|
p1220
I14
sV|ASN|
p1221
I30
sV|CPD-1763|
p1222
I38
sV|CPD-10536|
p1223
I4
sV|2-HEXAPRENYL-3-METHYL-6-METHOXY-14-BENZ|
p1224
I89
sV|CPD-11404|
p1225
I42
sV|CPD-14392|
p1226
I8
sV|CPD-11459|
p1227
I10
sV|CPD-7100|
p1228
I22
sV|DADP|
p1229
I21
sV|CPD-904|
p1230
I2
sV|CPD-6956|
p1231
I3
sV|A-PYRIMIDODIAZEPINE|
p1232
I18
sV|CPD-10773|
p1233
I8
sV|CPD-8707|
p1234
I10
sV|3-Oxo-octanoyl-ACPs|
p1235
I132
sV|HYPOXANTHINE|
p1236
I103
sV|CPD-9787|
p1237
I10
sV|CPD-7838|
p1238
I28
sV|Charged-ARG-tRNAs|
p1239
I19
sV|CPD1F-115|
p1240
I4
sV|Oxidized-ferredoxins|
p1241
I421
sV|L-1-GLYCEROPHOSPHORYLETHANOL-AMINE|
p1242
I6
sV|ISOVITEXIN|
p1243
I30
sV|S-RETICULINE|
p1244
I66
sV|CPD-13912|
p1245
I4
sV|CPD-11587|
p1246
I12
sV|CPD-6747|
p1247
I66
sV|CPD-9275|
p1248
I12
sV|CPD-12831|
p1249
I1
sV|CPD-12016|
p1250
I4
sV|CPD-17079|
p1251
I10
sV|CPD-9991|
p1252
I1
sV|CPD-4122|
p1253
I12
sV|Branched-Unphos-Amylopectin-Tails|
p1254
I16
sV|CPD1F-98|
p1255
I8
sV|CPD-4903|
p1256
I9
sV|CPD-945|
p1257
I6
sV|Light|
p1258
I47
sV|Intracellular-Sulfur|
p1259
I18
sV|CPD-147|
p1260
I8
sV|--5-oxo-1-2-campholide|
p1261
I14
sV|CPD-15447|
p1262
I16
sV|AICAR|
p1263
I37
sV|CPD-695|
p1264
I22
sV|CPD-14806|
p1265
I20
sV|Heparan-sulfate-L-IdoA-2S|
p1266
I11
sV|CPD-9146|
p1267
I16
sV|Linoleoyl-groups|
p1268
I2
sV|NDP-4-dehydro-6-deoxy-D-glucose|
p1269
I30
sV|CPD-14178|
p1270
I6
sV|CPD-15213|
p1271
I1
sV|L-ASPARTATE-SEMIALDEHYDE|
p1272
I118
sV|CPD-9674|
p1273
I12
sV|HYDROXYLAMINE|
p1274
I26
sV|Thyroglobulin-aminoacrylates|
p1275
I10
sV|CPD-9315|
p1276
I10
sV|CPD-12937|
p1277
I12
sV|CPD-6625|
p1278
I21
sV|CPD-3194|
p1279
I64
sV|CPD-12486|
p1280
I2
sV|CPD-14447|
p1281
I20
sV|Rhamonsylated-Rhamonsyl-Acceptors|
p1282
I2
sV|CPD-311|
p1283
I4
sV|ETF-Oxidized|
p1284
I188
sV|THIAMINE-P|
p1285
I26
sV|CPD-9475|
p1286
I2
sV|CPD-13926|
p1287
I6
sV|CPD-14378|
p1288
I8
sV|CPD-13171|
p1289
I14
sV|cis-cis-D19-31-3-oxo-C50-2-ACPs|
p1290
I362
sV|CPD-12777|
p1291
I4
sV|CPD-9045|
p1292
I28
sV|CPD-7389|
p1293
I8
sV|CPD-8091|
p1294
I60
sV|CPD-8066|
p1295
I3
sV|CPD-11890|
p1296
I53
sV|CPD-9866|
p1297
I28
sV|ETHANAMINE|
p1298
I12
sV|LysW-Alpha-Aminoadipate-Phosphate|
p1299
I18
sV|DIHYDROLIPOYL-GCVH|
p1300
I4
sV|Donor-H2|
p1301
I5073
sV|CPD-670|
p1302
I3
sV|CPD-9158|
p1303
I16
sV|CPD-12896|
p1304
I6
sV|Glucosyl-acyl-sphingosines|
p1305
I12
sV|CPD-15548|
p1306
I6
sV|BIFURCOSE|
p1307
I4
sV|D-ALTRONATE|
p1308
I6
sV|CPD-239|
p1309
I3
sV|trans-D2-cis-D13-lacceroyl-ACPs|
p1310
I362
sV|CPD-15362|
p1311
I24
sV|CPD-12759|
p1312
I14
sV|CPD-1041|
p1313
I20
sV|Dermatan-sulfate-L-IdoA2S|
p1314
I3
sV|D-MYO-INOSITOL-1-MONOPHOSPHATE|
p1315
I36
sV|CPD-10263|
p1316
I4
sV|CPD-12573|
p1317
I2
sV|CPD-7860|
p1318
I18
sV|CPD-15268|
p1319
I6
sV|CPD-12642|
p1320
I10
sV|Charged-ALA-tRNAs|
p1321
I22
sV|CPD-264|
p1322
I22
sV|Pyruvate-dehydrogenase-dihydrolipoate|
p1323
I4
sV|5Z13E-15S-69-ALPHA-EPOXY-11-ALPHA|
p1324
I4
sV|CPDQT-28|
p1325
I37
sV|CPD-11505|
p1326
I4
sV|CPD-9132|
p1327
I5
sV|NYSTOSE|
p1328
I4
sV|CPD-9913|
p1329
I16
sV|CPD-7973|
p1330
I3
sV|CPD1G-1533|
p1331
I181
sV|CPD-12090|
p1332
I18
sV|CPD-13571|
p1333
I7
sV|CPD-7149|
p1334
I5
sV|CPD-13797|
p1335
I34
sV|CPD-8953|
p1336
I18
sV|CPD-470|
p1337
I43
sV|KDO-8P|
p1338
I10
sV|CPD-384|
p1339
I8
sV|CPD-1281|
p1340
I17
sV|CPD66-96|
p1341
I2
sV|CPD-10477|
p1342
I10
sV|CPD-1067|
p1343
I18
sV|CPD-16528|
p1344
I5
sV|CPD-14431|
p1345
I3
sV|CPD-15566|
p1346
I4
sV|CPD-14992|
p1347
I6
sV|SoxY-Thiocysteine-Sulfate|
p1348
I10
sV|11-cis-3-hydroxyretinol-RBPs|
p1349
I12
sV|CODEINONE|
p1350
I24
sV|CPD-13101|
p1351
I14
sV|CPD-10663|
p1352
I6
sV|CPD-12585|
p1353
I18
sV|L-Arabinans|
p1354
I1
sV|SUPER-OXIDE|
p1355
I16
sV|CPD-2189|
p1356
I108
sV|CPD-14678|
p1357
I28
sV|L-HYOSCYAMINE|
p1358
I32
sV|CPD-10826|
p1359
I12
sV|5-10-METHENYL-THF-GLU-N|
p1360
I246
sV|CPD-13499|
p1361
I2
sV|PHOSPHATIDYLCHOLINE|
p1362
I88
sV|CPD-12285|
p1363
I3
sV|CPD-9557|
p1364
I2
sV|CPD-9898|
p1365
I14
sV|CPD1G-108|
p1366
I362
sV|CPD-825|
p1367
I18
sV|CPD-17078|
p1368
I10
sV|CPD-9905|
p1369
I21
sV|Cyclodextrins|
p1370
I12
sV|trans-D2-cis-cis-D11-23-C42-3-ACPs|
p1371
I362
sV|CPD-9716|
p1372
I3
sV|Saturated-Fatty-Acyl-ACPs|
p1373
I12
sV|CPD-4602|
p1374
I6
sV|4-3-PYRIDYL-BUTANOATE|
p1375
I64
sV|CPD-13229|
p1376
I9
sV|Thyroglobulin-L-tyrosines|
p1377
I5
sV|LIPOYL-AMP|
p1378
I8
sV|B-ALANINE|
p1379
I26
sV|CPD-15006|
p1380
I22
sV|ADENOSYL-HOMO-CYS|
p1381
I5462
sV|CPD-3943|
p1382
I60
sV|CPD-713|
p1383
I42
sV|6-OXO-HEXANOATE|
p1384
I20
sV|Heparan-sulfate-D-glucuronate|
p1385
I11
sV|CPD-16530|
p1386
I3
sV|CPD-4564|
p1387
I6
sV|CPD-16899|
p1388
I4
sV|CPD0-1159|
p1389
I3
sV|Petrosel-2-enoyl-ACPs|
p1390
I10
sV|GLC-D-LACTONE|
p1391
I66
sV|CPD-15021|
p1392
I11
sV|CARBON-DIOXIDE|
p1393
I11545
sV|CATECHOL|
p1394
I24
sV|CPD-9532|
p1395
I12
sV|CPD-10456|
p1396
I11
sV|--bornyl-diphosphate|
p1397
I4
sV|3-KETOLACTOSE|
p1398
I4
sV|PROPIONYL-P|
p1399
I18
sV|SALICYLALDEHYDE|
p1400
I20
sV|CPD-15637|
p1401
I22
sV|CPD-1008|
p1402
I12
sV|CPD-11735|
p1403
I36
sV|CPD-655|
p1404
I4
sV|ADENOSYLCOBALAMIN|
p1405
I26
sV|CPD-9066|
p1406
I16
sV|CPD-5923|
p1407
I10
sV|PYRIDOXINE-5P|
p1408
I62
sV|GAMMA-BUTYROBETAINYL-COA|
p1409
I6
sV|GAMMA-HCH|
p1410
I10
sV|ISOBUTYRATE|
p1411
I8
sV|CPD-13803|
p1412
I34
sV|35-DICHLOROCATECHOL|
p1413
I7
sV|CPD-13711|
p1414
I28
sV|CPD-16964|
p1415
I26
sV|CPD-7672|
p1416
I3
sV|CPD-10162|
p1417
I14
sV|44-DIMETHYL-824-CHOLESTADIENOL|
p1418
I98
sV|6-HYDROXY-NICOTINATE|
p1419
I34
sV|CPD-15529|
p1420
I11
sV|CPD-13346|
p1421
I2
sV|ZYMOSTEROL|
p1422
I91
sV|Sophorosyloxy-Fatty-Acids|
p1423
I11
sV|CPD-4661|
p1424
I8
sV|L-GLUTAMATE-5-P|
p1425
I26
sV|SALUTARIDINE|
p1426
I24
sV|Diphthine-methyl-ester-EF2|
p1427
I6
sV|CPD-9667|
p1428
I24
sV|CPD-9481|
p1429
I3
sV|i-Antigens|
p1430
I18
sV|CPD-8918|
p1431
I4
sV|CPD-14886|
p1432
I39
sV|CPD-14523|
p1433
I20
sV|GLUCOSAMINYL-16-ETCETERA-GALACTOSAMINYL-|
p1434
I2
sV|DTDP-D-GLUCOSE|
p1435
I154
sV|CPD-11526|
p1436
I36
sV|cis-D19-37-OH-38-Me-C57-1-ACPs|
p1437
I543
sV|CPD-16625|
p1438
I38
sV|L-GULONATE|
p1439
I22
sV|CPD-12636|
p1440
I18
sV|CPD-207|
p1441
I44
sV|CPD-7409|
p1442
I20
sV|CPD-7037|
p1443
I2
sV|CPD-13636|
p1444
I1
sV|CPD-14681|
p1445
I14
sV|CPD-7994|
p1446
I57
sV|6-OXOCYCLOHEX-1-ENE-1-CARBONYL-COA|
p1447
I38
sV|CPD-597|
p1448
I8
sV|PROPIONYL-COA|
p1449
I465
sV|Retinoid-binding-proteins|
p1450
I24
sV|CPD-12386|
p1451
I26
sV|CPD-3631|
p1452
I16
sV|CPD-10838|
p1453
I4
sV|CPD-404|
p1454
I4
sV|CPD1G-0|
p1455
I11
sV|CPD-12299|
p1456
I2
sV|CPD-9851|
p1457
I6
sV|CPD-4752|
p1458
I11
sV|GLUTACONYL-COA|
p1459
I48
sV|CPDQT-277|
p1460
I16
sV|CPD-11402|
p1461
I14
sV|DIHYDROFOLATE-GLU-N|
p1462
I83
sV|DELTA1-PYRROLINE_2-CARBOXYLATE|
p1463
I6
sV|CPD-10684|
p1464
I1
sV|CPD-8049|
p1465
I3
sV|CPD1G-855|
p1466
I181
sV|CPD-10538|
p1467
I12
sV|CPD-14243|
p1468
I4
sV|CPD-16603|
p1469
I4
sV|Soyasapogenol-E-Monoglucosides|
p1470
I3
sV|CPD-10771|
p1471
I26
sV|CPD-11519|
p1472
I36
sV|CPD-13962|
p1473
I13
sV|CPD-8705|
p1474
I10
sV|CPD-10101|
p1475
I18
sV|N-acetyl-D-mannosamine|
p1476
I10
sV|Retinal-IRBPs|
p1477
I22
sV|17-BETA-HYDROXY-5ALPHA-ANDROSTAN-3-O|
p1478
I5
sV|CPD-15498|
p1479
I22
sV|CPD-13910|
p1480
I10
sV|CPD-15423|
p1481
I10
sV|CPD-17022|
p1482
I2
sV|CONIFERYL-ALDEHYDE|
p1483
I58
sV|TRP|
p1484
I240
sV|D-3-HYDROXYACYL-COA|
p1485
I43
sV|5-METHYL-THF-GLU-N|
p1486
I131
sV|UDP-ACETYL-CARBOXYVINYL-GLUCOSAMINE|
p1487
I28
sV|CPD-8253|
p1488
I4
sV|CPD-8609|
p1489
I38
sV|CPD-6741|
p1490
I39
sV|CPD-4742|
p1491
I16
sV|STREPTOMYCIN|
p1492
I36
sV|N-SUCCINYLLL-2-6-DIAMINOPIMELATE|
p1493
I16
sV|CPD-763|
p1494
I27
sV|CPD-9007|
p1495
I8
sV|1-AMINO-PROPAN-2-OL|
p1496
I12
sV|XANTHOSINE-5-PHOSPHATE|
p1497
I27
sV|CPD-15445|
p1498
I8
sV|Delta4-hexadecenoyl-ACPs|
p1499
I10
sV|Delta-GalA-rhamnogalacturonan|
p1500
I9
sV|CPD-149|
p1501
I32
sV|SPERMINE|
p1502
I18
sV|CPDQT-280|
p1503
I45
sV|SCOPOLETIN|
p1504
I54
sV|GALACTITOL-1-PHOSPHATE|
p1505
I2
sV|OXOPENTENOATE|
p1506
I126
sV|CPD-789|
p1507
I3
sV|CPD-13777|
p1508
I10
sV|CPD-10238|
p1509
I24
sV|CPD-339|
p1510
I8
sV|CPD-14808|
p1511
I68
sV|CPD-10243|
p1512
I24
sV|3-Ketopimeloyl-ACP-methyl-esters|
p1513
I20
sV|ENT-COPALYL-DIPHOSPHATE|
p1514
I64
sV|CPD-15211|
p1515
I4
sV|CPD-10654|
p1516
I3
sV|CPD-10072|
p1517
I13
sV|CPD-12699|
p1518
I6
sV|CPD-15798|
p1519
I24
sV|CPD-709|
p1520
I102
sV|L-ALPHA-AMINO-EPSILON-KETO-PIMELATE|
p1521
I12
sV|CPD-6623|
p1522
I14
sV|CPD-12935|
p1523
I12
sV|CPD-13924|
p1524
I12
sV|Long-chain-alcohols|
p1525
I18
sV|L-BETA-ASPARTYL-P|
p1526
I100
sV|CPD-14277|
p1527
I30
sV|CPD-13173|
p1528
I10
sV|CPD-16883|
p1529
I2
sV|CPD-313|
p1530
I36
sV|CPD-694|
p1531
I30
sV|ACP|
p1532
I6405
sV|CPD-13122|
p1533
I10
sV|2H6OH2-4DIENOATE|
p1534
I22
sV|S-ubiquitinyl-HECT-E3-UCP-L-cysteine|
p1535
I12
sV|P-BENZOQUINONE|
p1536
I8
sV|CPD-13719|
p1537
I8
sV|CPD-7074|
p1538
I3
sV|CARDIOLIPIN|
p1539
I8
sV|ISOPENICILLIN-N|
p1540
I3
sV|CPD-12771|
p1541
I36
sV|Plastocyanin-Reduced|
p1542
I14
sV|--EPHEDRINE|
p1543
I7
sV|CPD-11892|
p1544
I6
sV|CPD-9868|
p1545
I14
sV|cis-delta19-3-hydroxyC38-ACPs|
p1546
I362
sV|CPD-14455|
p1547
I6
sV|CPD-14935|
p1548
I34
sV|ALL-TRANS-HEPTAPRENYL-DIPHOSPHATE|
p1549
I15
sV|CPD-12571|
p1550
I4
sV|CPD-6122|
p1551
I4
sV|CPD-3343|
p1552
I4
sV|CPD-11481|
p1553
I27
sV|C55-PP-GLCNAC-MANNACA|
p1554
I8
sV|CPD-10609|
p1555
I2
sV|Amino-Hydroxybenzoyl-Acps|
p1556
I24
sV|CPD-13017|
p1557
I44
sV|CPD-266|
p1558
I56
sV|CPD-6984|
p1559
I14
sV|S-ADENOSYL-4-METHYLTHIO-2-OXOBUTANOATE|
p1560
I2
sV|CPD1G-124|
p1561
I362
sV|CPD-9742|
p1562
I9
sV|CPD-1112|
p1563
I16
sV|CPD-7003|
p1564
I4
sV|CPD-22|
p1565
I10
sV|CPD-12092|
p1566
I18
sV|CPD-55|
p1567
I4
sV|CPD-11552|
p1568
I26
sV|CPD-14248|
p1569
I11
sV|ACETYL-ETCETERA-GLUCOSAMINYLDIPHOSPHOUND|
p1570
I14
sV|CPD-9568|
p1571
I12
sV|CPD-11956|
p1572
I8
sV|CPD-9915|
p1573
I16
sV|CPD1G-1531|
p1574
I197
sV|CPD-472|
p1575
I16
sV|GERMANICOL|
p1576
I14
sV|PRENAL|
p1577
I14
sV|CPD-3743|
p1578
I28
sV|CPD-13573|
p1579
I28
sV|UV-Light|
p1580
I3
sV|4-GUANIDO-BUTYRAMIDE|
p1581
I4
sV|apo-ACP|
p1582
I2
sV|Polyketide-synthase-PKS13|
p1583
I1810
sV|VAL-tRNAs|
p1584
I19
sV|CPD-9216|
p1585
I10
sV|CPD-13799|
p1586
I34
sV|3-Hydroxyglutaryl-ACP-methyl-ester|
p1587
I20
sV|UDP-N-ACETYL-D-GLUCOSAMINE|
p1588
I341
sV|CPD-9948|
p1589
I4
sV|CPD-10174|
p1590
I16
sV|CPD-7953|
p1591
I12
sV|PTS-I-pi-phospho-L-histidines|
p1592
I2
sV|CPD-10471|
p1593
I6
sV|CPD-11754|
p1594
I10
sV|CPD-8674|
p1595
I10
sV|SN-GLYCEROL-1-PHOSPHATE|
p1596
I10
sV|CPD1G-204|
p1597
I362
sV|IMP|
p1598
I51
sV|CPD-14831|
p1599
I18
sV|CPD-180|
p1600
I36
sV|CYS|
p1601
I178
sV|CPD-14990|
p1602
I6
sV|1-3-D-xylooligosaccharides|
p1603
I2
sV|N-ACETYL-L-24-DIAMINOBUTANOATE|
p1604
I8
sV|CPD-10026|
p1605
I13
sV|CPD-11878|
p1606
I24
sV|CPD-10796|
p1607
I15
sV|11C-Retinal-RALBPs|
p1608
I42
sV|CPD-16675|
p1609
I18
sV|CPD-13446|
p1610
I6
sV|CPD-9903|
p1611
I14
sV|Methylesterified-homogalacturonan|
p1612
I2
sV|10-FORMYL-DIHYDROFOLATE-GLU-N|
p1613
I4
sV|cis-delta15-gheddoyl-ACPs|
p1614
I362
sV|RETINAL|
p1615
I34
sV|ISOMETHYLEUGENOL|
p1616
I3
sV|INDOLE-3-ACETYL-ALA|
p1617
I7
sV|BETAINE-ALDEHYDE-HYDRATE|
p1618
I6
sV|CPD-13559|
p1619
I6
sV|CPD-10012|
p1620
I6
sV|7-HYDROXY-2-OXINDOLE-3-ACETIC-ACID-GLUCO|
p1621
I2
sV|Very-Long-Chain-oxoacyl-CoAs|
p1622
I6
sV|7E9E11Z14Z-5S6R-6-CYSTEIN-S-YL|
p1623
I5
sV|P-RIBOSYL-4-SUCCCARB-AMINOIMIDAZOLE|
p1624
I28
sV|CPD-12187|
p1625
I16
sV|PHENYLACETONITRILE|
p1626
I3
sV|3S-11-cis-3-hydroxyretinal-RBPs|
p1627
I6
sV|CPD-8225|
p1628
I15
sV|CORTISOL|
p1629
I2
sV|CPD-715|
p1630
I103
sV|CPD-13061|
p1631
I8
sV|CPD-13034|
p1632
I10
sV|SN-GERANYLGERANYLGLYCERYL-1-PHOSPHATE|
p1633
I10
sV|DAIDZEIN|
p1634
I40
sV|CPD-16680|
p1635
I22
sV|RIBOSE-1-ARSENATE|
p1636
I12
sV|CPD-8291|
p1637
I6
sV|CPD-16740|
p1638
I10
sV|L-THREONATE|
p1639
I10
sV|CPD-8617|
p1640
I38
sV|CPD-15023|
p1641
I10
sV|D-GALACTONATE|
p1642
I3
sV|CPD-12829|
p1643
I6
sV|2-HEXAPRENYL-6-METHOXYPHENOL|
p1644
I52
sV|CPD-6642|
p1645
I5
sV|CPD-14061|
p1646
I14
sV|Feruloyl-polysaccharides|
p1647
I2
sV|CPD-10040|
p1648
I52
sV|CPD-9530|
p1649
I12
sV|CPD-11737|
p1650
I36
sV|SULFATE|
p1651
I104
sV|CPD-15639|
p1652
I1
sV|CPD-5441|
p1653
I26
sV|CPD-9522|
p1654
I7
sV|CPD-6955|
p1655
I4
sV|cis-cis-D5-23-3-oxo-C42-2-ACPs|
p1656
I362
sV|CPD-10160|
p1657
I4
sV|CPD-309|
p1658
I4
sV|CPD-9938|
p1659
I15
sV|CPD-7670|
p1660
I21
sV|COBALT-SIROHYDROCHLORIN|
p1661
I28
sV|CPD-9465|
p1662
I8
sV|Saturated-Fatty-Acyl-CoA|
p1663
I60
sV|CPD-9957|
p1664
I14
sV|CPD-14833|
p1665
I18
sV|CPD-9665|
p1666
I24
sV|CPD-4663|
p1667
I8
sV|CPD-15043|
p1668
I12
sV|Rhamnogalacturonan-L-Rhamnose|
p1669
I7
sV|Jasmonoyl-ACCs|
p1670
I4
sV|PHOSPHORIBULOSYL-FORMIMINO-AICAR-P|
p1671
I18
sV|N2-SUCCINYLORNITHINE|
p1672
I8
sV|CPD-7391|
p1673
I2
sV|CPD-4889|
p1674
I45
sV|CPD-11520|
p1675
I36
sV|CPD1A0-6105|
p1676
I24
sV|NDP-4-dehydro-26-dideoxy-D-glucose|
p1677
I30
sV|CPD-76|
p1678
I16
sV|CPD-205|
p1679
I1
sV|CPD-94|
p1680
I4
sV|PARATHION|
p1681
I1
sV|Heme-d1|
p1682
I2
sV|CPD-4187|
p1683
I101
sV|CPD-1086|
p1684
I50
sV|CPD-13752|
p1685
I98
sV|CPD-15911|
p1686
I7
sV|CPD-10637|
p1687
I10
sV|CPD-11743|
p1688
I36
sV|C87-trans-keto-mycolate-pks13|
p1689
I362
sV|CPD-13547|
p1690
I4
sV|Teichoic-P-Gro-Glc|
p1691
I14
sV|CPD-406|
p1692
I34
sV|CPD-9853|
p1693
I14
sV|CPD-4921|
p1694
I7
sV|CPD1G-2|
p1695
I21
sV|CPD-344|
p1696
I7
sV|CPD-14207|
p1697
I22
sV|CPD-112|
p1698
I46
sV|HEXANOL-CMPD|
p1699
I10
sV|CPD-165|
p1700
I21
sV|CPD-9899|
p1701
I16
sV|CPD-4754|
p1702
I32
sV|HSCN|
p1703
I29
sV|CPD-7104|
p1704
I16
sV|CPD-7403|
p1705
I2
sV|INOSITOL-1-4-5-TRISPHOSPHATE|
p1706
I33
sV|CPD-15839|
p1707
I10
sV|CPD-11400|
p1708
I14
sV|POLYVINYL-ALCOHOL|
p1709
I1
sV|CPD-10777|
p1710
I5
sV|CPD-13783|
p1711
I8
sV|THZ-P|
p1712
I21
sV|CPD-12703|
p1713
I8
sV|EIF5A-HYPUSINE|
p1714
I4
sV|Cis-Delta5-dodecenoyl-ACPs|
p1715
I13
sV|CPD-12260|
p1716
I18
sV|INDICAN|
p1717
I2
sV|Desaturated-Thalian-diols|
p1718
I2
sV|CPD-13344|
p1719
I12
sV|CPD-13841|
p1720
I16
sV|DIHYDRONEOPTERIN-P|
p1721
I28
sV|N-ACETYL-D-GLUCOSAMINE-1-P|
p1722
I56
sV|3-HYDROXYPIMELYL-COA|
p1723
I54
sV|trans-D2-cis-cis-D17-29-C48-3-ACPs|
p1724
I362
sV|CPD-9995|
p1725
I10
sV|CPD-6743|
p1726
I39
sV|DEOXYCHOLYL-COA|
p1727
I14
sV|CPD-12012|
p1728
I14
sV|CPD-17075|
p1729
I5
sV|CPD-14321|
p1730
I9
sV|D-MANNONATE|
p1731
I6
sV|cis-cis-D9-21-3-oxo-C40-2-ACPs|
p1732
I362
sV|CPD-12835|
p1733
I28
sV|DELTA-TOCOPHEROL|
p1734
I12
sV|CPD-4126|
p1735
I68
sV|CPD-7561|
p1736
I16
sV|CPD-9774|
p1737
I16
sV|CPD-15191|
p1738
I22
sV|CPD-387|
p1739
I290
sV|S-STYLOPINE|
p1740
I32
sV|CPD-7907|
p1741
I2
sV|BCCP-biotin-monomers|
p1742
I6
sV|3-DEHYDRO-SHIKIMATE|
p1743
I40
sV|ADP|
p1744
I4428
sV|2-HYDROXY-4-CARBOXYPYRIMIDINE|
p1745
I4
sV|CPD-16736|
p1746
I10
sV|5-oxyacetylU34-tRNA|
p1747
I1
sV|CPD1G-360|
p1748
I362
sV|CPD-10241|
p1749
I24
sV|CPD-13775|
p1750
I10
sV|ACYL-COA|
p1751
I25
sV|D-RIBULOSE|
p1752
I10
sV|CPD-8661|
p1753
I14
sV|CPD-13897|
p1754
I14
sV|Red-Glutaredoxins|
p1755
I8
sV|CPD-10656|
p1756
I12
sV|IMINOASPARTATE|
p1757
I46
sV|CPD-9311|
p1758
I2
sV|Mycoredoxins|
p1759
I6
sV|CPD-10599|
p1760
I10
sV|CPD-15770|
p1761
I11
sV|CPD-12165|
p1762
I3
sV|CPD3DJ-82|
p1763
I100
sV|CPD-14074|
p1764
I36
sV|CPD-13922|
p1765
I14
sV|CPD-696|
p1766
I86
sV|THIOHYDROXIMATE-O-SULFATES|
p1767
I6
sV|CPD-3190|
p1768
I64
sV|CPD-14853|
p1769
I96
sV|CPD-13175|
p1770
I30
sV|CPD-16881|
p1771
I3
sV|CPD-12038|
p1772
I4
sV|Pyruvate-dehydrogenase-acetylDHlipoyl|
p1773
I4
sV|CPD-15716|
p1774
I1
sV|a-pyruvate-dehydrogenase-E2-protein-Nsup|
p1775
I8
sV|CPD-5161|
p1776
I28
sV|CPD-603|
p1777
I6
sV|CPD-9049|
p1778
I28
sV|CPD-14937|
p1779
I17
sV|CPD1A0-6119|
p1780
I24
sV|CPD-14116|
p1781
I2
sV|CPD-14453|
p1782
I12
sV|CPD-16796|
p1783
I22
sV|CPD-7646|
p1784
I32
sV|CPD-10448|
p1785
I11
sV|CPD-13680|
p1786
I28
sV|CPD-17018|
p1787
I14
sV|His-tRNA-Adenosine4|
p1788
I14
sV|CPD-10081|
p1789
I2
sV|TRICHLOROPHENOL|
p1790
I4
sV|LOGANATE|
p1791
I24
sV|CPD-9446|
p1792
I2
sV|CPD-15366|
p1793
I36
sV|2-KETO-3-DEOXY-6-P-GLUCONATE|
p1794
I42
sV|CPD-12577|
p1795
I21
sV|CPD66-59|
p1796
I8
sV|CPD-260|
p1797
I17
sV|5734-TETRAHYDROXYFLAVONE|
p1798
I33
sV|CPD-12138|
p1799
I12
sV|CPD-9584|
p1800
I3
sV|CPD-13015|
p1801
I3
sV|4-PRENYLPHLORISOBUTYROPHENONE|
p1802
I16
sV|1236-TETRAKIS-O-GALLOYL-BETA-D-GLUCOS|
p1803
I10
sV|CPD-721|
p1804
I41
sV|CPD-10588|
p1805
I56
sV|CPD-6982|
p1806
I6
sV|CPD-11554|
p1807
I10
sV|CPD-1114|
p1808
I10
sV|CPD-20|
p1809
I20
sV|CPD-9917|
p1810
I8
sV|2-5-DIHYDROXYPYRIDINE|
p1811
I33
sV|CPD0-1081|
p1812
I18
sV|CPD-9136|
p1813
I10
sV|CPD-7005|
p1814
I6
sV|CPD-9|
p1815
I20
sV|CPD-14829|
p1816
I18
sV|CPD-4893|
p1817
I9
sV|CPD-8906|
p1818
I14
sV|trans-D2-cis-D5-lignoceroyl-ACPs|
p1819
I362
sV|HOLO-CITRATE-LYASE|
p1820
I16
sV|CPD-15253|
p1821
I14
sV|N-ACETYL-BETA-D-GLUCOSAMINYL-16-ETCETERA|
p1822
I9
sV|C4|
p1823
I28
sV|CPD-10473|
p1824
I2
sV|DGTP|
p1825
I15
sV|ADP-D-GLUCOSE|
p1826
I43
sV|CPD-8928|
p1827
I8
sV|Beta-OH-Tyr-S-NovH|
p1828
I8
sV|CPD-10807|
p1829
I16
sV|PAPS|
p1830
I330
sV|CPD-11752|
p1831
I5
sV|yW-58|
p1832
I4
sV|CPD-7257|
p1833
I56
sV|CPD-14629|
p1834
I18
sV|N-4-aminobutylidene-enzyme-lysine|
p1835
I8
sV|tRNAPhe-Containing-isowyosine-37|
p1836
I6
sV|MG-PROTOPORPHYRIN-MONOMETHYL-ESTER|
p1837
I54
sV|CPD-16051|
p1838
I2
sV|CPD-16986|
p1839
I2
sV|CPD0-1163|
p1840
I2
sV|CPD-9635|
p1841
I5
sV|Jasmonoyl-Glutamines|
p1842
I3
sV|trans-D2-cis-cis-D15-33-C52-3-ACPs|
p1843
I362
sV|CPD0-1385|
p1844
I1
sV|CPD-16677|
p1845
I16
sV|CPD-13440|
p1846
I5
sV|13-HYDROXYLUPININE|
p1847
I8
sV|CPD-9894|
p1848
I16
sV|iota-Carrageenan|
p1849
I1
sV|CPD-13666|
p1850
I18
sV|CPD-12281|
p1851
I6
sV|ACET|
p1852
I637
sV|CPD0-936|
p1853
I18
sV|CPD-10546|
p1854
I2
sV|Arabinoxylan|
p1855
I2
sV|Starch|
p1856
I40
sV|2-S-HYDROXYPROPYL-COM|
p1857
I12
sV|CPD-9298|
p1858
I20
sV|CPD-9245|
p1859
I9
sV|CPD-1822|
p1860
I27
sV|CPD-13036|
p1861
I10
sV|CYCLOHEXANONE|
p1862
I8
sV|ACETYLENE|
p1863
I4
sV|5-P-RIBOSYL-N-FORMYLGLYCINEAMIDE|
p1864
I29
sV|R2OH-Straight-Chain-234-Sat-FA|
p1865
I10
sV|HOMO-CIT|
p1866
I64
sV|CPD-11945|
p1867
I4
sV|CPD-717|
p1868
I143
sV|3S-11-cis-3-hydroxyretinol-RBPs|
p1869
I12
sV|CPD-7275|
p1870
I56
sV|CPD-12022|
p1871
I2
sV|CPD-10505|
p1872
I56
sV|3-HYDROXYPROPYL-GLUCOSINOLATE|
p1873
I33
sV|URIDINE|
p1874
I14
sV|CPD-8611|
p1875
I38
sV|PigJ-pyrrole-2-carboxylate|
p1876
I22
sV|3-oxo-C85-cis-methoxy-mycolate-pks13|
p1877
I362
sV|R-2-HYDROXYGLUTARATE|
p1878
I12
sV|Cytosine-40-tRNA-Precursors|
p1879
I14
sV|O-ACETYLCARNITINE|
p1880
I1
sV|2-CH2-GLUTARATE|
p1881
I16
sV|TROPINE|
p1882
I32
sV|PHENYLACETATE|
p1883
I32
sV|CPD-8614|
p1884
I38
sV|CPD-16788|
p1885
I33
sV|CPD-9598|
p1886
I1
sV|CPD-11223|
p1887
I16
sV|CPD-14017|
p1888
I12
sV|CPD-13089|
p1889
I20
sV|CPD-8135|
p1890
I34
sV|CPD-14876|
p1891
I8
sV|CPD-7618|
p1892
I8
sV|CPD-10214|
p1893
I24
sV|CPD-4579|
p1894
I98
sV|CPD-9150|
p1895
I16
sV|CPD-14137|
p1896
I60
sV|Guanine37-in-tRNAPhe|
p1897
I20
sV|CPD-4206|
p1898
I30
sV|pyruvate-dehydrogenase-E2-lipoyl-carrier|
p1899
I4
sV|CPD-15739|
p1900
I26
sV|CPD-13009|
p1901
I33
sV|CPD-12909|
p1902
I68
sV|MYO-INOSITOL|
p1903
I144
sV|NADP|
p1904
I14401
sV|CPD-16968|
p1905
I8
sV|RUTIN|
p1906
I8
sV|CPD-15662|
p1907
I10
sV|L-1-PHOSPHATIDYL-GLYCEROL-P|
p1908
I20
sV|BETA-TOCOPHEROL|
p1909
I6
sV|CPD-12024|
p1910
I2
sV|CPD-9467|
p1911
I14
sV|CPD-10208|
p1912
I24
sV|DIHYDROXYACETONE|
p1913
I29
sV|CPD-9663|
p1914
I16
sV|CPD-9698|
p1915
I1
sV|FRUCTURONATE|
p1916
I13
sV|CPD-14835|
p1917
I14
sV|Gramicidin-Pentapeptidyl-Acps|
p1918
I4
sV|CPD-15684|
p1919
I18
sV|CPD-665|
p1920
I81
sV|LINOLEIC_ACID|
p1921
I64
sV|SEROTONIN|
p1922
I43
sV|CPD-12120|
p1923
I2
sV|CPD-16621|
p1924
I38
sV|CPD-13632|
p1925
I18
sV|CINNAMOYL-COA|
p1926
I42
sV|CPD-2482|
p1927
I5
sV|trans-D2-cis-cis-D13-31-C50-3-ACPs|
p1928
I362
sV|CPD-11522|
p1929
I36
sV|CPD-1084|
p1930
I2
sV|CPD-8123|
p1931
I6
sV|CPD-9978|
p1932
I24
sV|NARINGIN|
p1933
I2
sV|cis-cis-D7-19-3-oxo-C38-2-ACPs|
p1934
I362
sV|CPD-4302|
p1935
I6
sV|CPD-10734|
p1936
I6
sV|2-KETO-GLUTARAMATE|
p1937
I118
sV|CPD-15913|
p1938
I14
sV|CPD-10635|
p1939
I10
sV|CPD-16523|
p1940
I8
sV|57222428-ERGOSTATETRAENOL|
p1941
I8
sV|CPD-9758|
p1942
I2
sV|CPD-12462|
p1943
I11
sV|CPD-4204|
p1944
I30
sV|CPD-110|
p1945
I34
sV|CPD-14205|
p1946
I20
sV|CPD-14900|
p1947
I18
sV|CPD-7989|
p1948
I1
sV|NAcMur-Peptide-NAcGlc-Undecaprenols|
p1949
I5
sV|CPDQT-273|
p1950
I30
sV|CPD-16830|
p1951
I6
sV|CPD-16865|
p1952
I2
sV|Glycogens|
p1953
I19
sV|CPD-488|
p1954
I2
sV|CPD-8949|
p1955
I2
sV|CPD-11457|
p1956
I10
sV|CPD-7106|
p1957
I3
sV|TETRACHLOROETHENE|
p1958
I3
sV|CPD-13781|
p1959
I16
sV|OROTIDINE-5-PHOSPHATE|
p1960
I10
sV|CPD-10775|
p1961
I10
sV|CPD-12266|
p1962
I2
sV|CPD-13100|
p1963
I8
sV|5-ppp-Pur-mRNA|
p1964
I2
sV|CPD-10662|
p1965
I16
sV|3-PYRIDYLACETIC-ACID|
p1966
I32
sV|BIPHENYL|
p1967
I4
sV|CPD-14427|
p1968
I14
sV|CPD-10896|
p1969
I8
sV|CPD-13914|
p1970
I10
sV|Oleoyl-groups|
p1971
I4
sV|CPD0-1470|
p1972
I6
sV|CPD-17077|
p1973
I10
sV|MEVALONATE|
p1974
I53
sV|CPD-4124|
p1975
I68
sV|CPD-4621|
p1976
I3
sV|CPD1F-96|
p1977
I18
sV|CPD-14323|
p1978
I18
sV|BENZENE|
p1979
I2
sV|3-KETO-ADIPATE|
p1980
I91
sV|Very-Long-Chain-Trans-23-Dehydroacyl-CoA|
p1981
I6
sV|CPD-11770|
p1982
I4
sV|CPD-8718|
p1983
I24
sV|cis-cis-D9-27-C46-2-ACPs|
p1984
I362
sV|CPD-9776|
p1985
I8
sV|CPD-15193|
p1986
I50
sV|CPD-11468|
p1987
I15
sV|cis-cis-D17-29-3-hydroxyC48-2-ACPs|
p1988
I362
sV|CPDQT-284|
p1989
I18
sV|4-AMINO-BUTYRALDEHYDE|
p1990
I18
sV|TRANS-D2-ENOYL-COA|
p1991
I83
sV|CPD-10247|
p1992
I3
sV|UDP-D-XYLOSE|
p1993
I53
sV|SUC|
p1994
I1227
sV|Chitodextrins|
p1995
I12
sV|ACETYL-ACP|
p1996
I55
sV|CPD1F-139|
p1997
I30
sV|CPD-13823|
p1998
I16
sV|CPD-10076|
p1999
I18
sV|CPD-12695|
p2000
I5
sV|CPD-10825|
p2001
I12
sV|CPD-8663|
p2002
I15
sV|STRICTOSIDINE|
p2003
I41
sV|Oxidized-Factor-F420|
p2004
I25
sV|CPD-1422|
p2005
I2
sV|CPD-14076|
p2006
I36
sV|TDP|
p2007
I392
sV|CPD-690|
p2008
I30
sV|CPD-17048|
p2009
I16
sV|Sophorosyloxy-FAs-O-6-Diacet|
p2010
I6
sV|CPD-13920|
p2011
I4
sV|CPD-8658|
p2012
I9
sV|CPD-16887|
p2013
I6
sV|BIPHENYL-23-DIOL|
p2014
I14
sV|Elemental-Sulfur|
p2015
I7
sV|CPD-14114|
p2016
I6
sV|CPD-15909|
p2017
I22
sV|CPD-353|
p2018
I1
sV|TRANS-2-HEXENOL|
p2019
I17
sV|CPD-4702|
p2020
I98
sV|CPD-13686|
p2021
I8
sV|CPD66-71|
p2022
I24
sV|CPD66-74|
p2023
I16
sV|CPD-14939|
p2024
I17
sV|CODEINE|
p2025
I24
sV|CPD-248|
p2026
I6
sV|CPD-14404|
p2027
I44
sV|CPD-16794|
p2028
I33
sV|CPD-15364|
p2029
I36
sV|CPD-15645|
p2030
I6
sV|2-ACETO-LACTATE|
p2031
I24
sV|CL-|
p2032
I360
sV|CPD-10083|
p2033
I18
sV|CPD0-888|
p2034
I10
sV|NONAPRENYL-4-HYDROXYBENZOATE|
p2035
I36
sV|CPD-12575|
p2036
I1826
sV|CPD-368|
p2037
I24
sV|CPD-12502|
p2038
I6
sV|CPD-9016|
p2039
I85
sV|CPD-9411|
p2040
I16
sV|CPD-10269|
p2041
I6
sV|CPD-14149|
p2042
I4
sV|UDP-MANNAC|
p2043
I16
sV|CPD-12648|
p2044
I3
sV|CPD-13815|
p2045
I28
sV|CPD-590|
p2046
I9
sV|CPD-723|
p2047
I42
sV|CPD-14054|
p2048
I2
sV|CPD-14081|
p2049
I30
sV|3-KETO-ADIPYL-COA|
p2050
I32
sV|CPD-13013|
p2051
I4
sV|5-BETA-L-THREO-PENTAPYRANOSYL-4-ULOSE-|
p2052
I10
sV|CPD-9143|
p2053
I4
sV|CPD-13376|
p2054
I10
sV|CPD-11556|
p2055
I8
sV|CPD0-1083|
p2056
I31
sV|CPD-26|
p2057
I26
sV|CPD1G-1535|
p2058
I181
sV|CPD-8191|
p2059
I8
sV|TETRADEHYDROACYL-COA|
p2060
I8
sV|CPD-4891|
p2061
I16
sV|trans-D2-cis-D11-melissoyl-ACPs|
p2062
I362
sV|CPD-1130|
p2063
I14
sV|CPD-14564|
p2064
I10
sV|C6|
p2065
I16
sV|CPDQT-419|
p2066
I16
sV|MANNITOL|
p2067
I17
sV|OROTATE|
p2068
I10
sV|CPD-9169|
p2069
I18
sV|cis-cis-D21-39-3-hydroxyC58-2-ACPs|
p2070
I362
sV|TRANS-23-DEHYDROADIPYL-COA|
p2071
I14
sV|Gellan|
p2072
I1
sV|CPD1G-854|
p2073
I181
sV|SANGUINARINE|
p2074
I32
sV|CPD-12728|
p2075
I4
sV|CPD-16846|
p2076
I12
sV|Behenoyl-ACPs|
p2077
I362
sV|CPD-7141|
p2078
I10
sV|CPD-8635|
p2079
I8
sV|CPD-12646|
p2080
I6
sV|CPD-11421|
p2081
I2
sV|CPD-11474|
p2082
I18
sV|CPD-10792|
p2083
I8
sV|CPD-15776|
p2084
I5
sV|44-DIMETHYL-CHOLESTA-812-24-TRIENOL|
p2085
I98
sV|CPD-16984|
p2086
I4
sV|CPD-159|
p2087
I18
sV|CPD-8835|
p2088
I3
sV|CPD-9896|
p2089
I14
sV|CPD-16679|
p2090
I22
sV|CPD-1722|
p2091
I18
sV|APS|
p2092
I30
sV|S-N-METHYLCOCLAURINE|
p2093
I21
sV|MIP2C|
p2094
I17
sV|CPD-13668|
p2095
I18
sV|2-2-METHYLTHIOETHYLMALIC-ACID|
p2096
I8
sV|CPD0-2354|
p2097
I36
sV|CPD-14502|
p2098
I27
sV|FERULOYL-COA|
p2099
I192
sV|CPD-10540|
p2100
I4
sV|2-UNDECANONE|
p2101
I5
sV|Linear-Malto-Oligosaccharides|
p2102
I39
sV|CPD-11667|
p2103
I12
sV|2-OCTAPRENYLPHENOL|
p2104
I14
sV|CPD-13030|
p2105
I18
sV|CPD-9295|
p2106
I6
sV|HYDROXYAMINOBENZENE|
p2107
I2
sV|QUERCETIN-337-TRISSULFATE|
p2108
I18
sV|CPD-10117|
p2109
I1
sV|OCTAPRENYL-METHYL-METHOXY-BENZQ|
p2110
I30
sV|CPD-11756|
p2111
I10
sV|CPD-8613|
p2112
I38
sV|CPD-9261|
p2113
I7
sV|CPD-16744|
p2114
I6
sV|CPD-10059|
p2115
I12
sV|CPD-13893|
p2116
I7
sV|CPD-12223|
p2117
I8
sV|CPD-9739|
p2118
I26
sV|C85-cis-methoxy-mycolate-pks13|
p2119
I362
sV|CPD-6602|
p2120
I16
sV|CPD-16697|
p2121
I10
sV|CPD-9370|
p2122
I4
sV|CPD0-954|
p2123
I2
sV|5-BETA-CHOLESTANE-3-ALPHA7-TETRAOL|
p2124
I56
sV|DIMETHYL-GLYCINE|
p2125
I28
sV|ARSENATE|
p2126
I18
sV|CPD-961|
p2127
I9
sV|CPD-11221|
p2128
I10
sV|CPD-15658|
p2129
I54
sV|CPD-14015|
p2130
I2
sV|GLUTATHIONE|
p2131
I288
sV|CPD-323|
p2132
I64
sV|CPD-6361|
p2133
I10
sV|L-RHAMNONO-14-LACTONE|
p2134
I39
sV|CPD-9387|
p2135
I1
sV|CPD-12907|
p2136
I68
sV|CPD-9461|
p2137
I21
sV|3457-TETRAHYDROXY-3-METHOXYFLAVONE|
p2138
I57
sV|CPD-15660|
p2139
I27
sV|CPD-9247|
p2140
I4
sV|CPD-305|
p2141
I4
sV|CPD-8486|
p2142
I9
sV|CPD-13381|
p2143
I52
sV|CPD-15686|
p2144
I18
sV|LONG-CHAIN-KETONE|
p2145
I5
sV|3-OXO-CHOLYL-COA|
p2146
I14
sV|CPD-9956|
p2147
I15
sV|10-DEACETYLBACCATIN-III|
p2148
I24
sV|CPD-1108|
p2149
I53
sV|CPD-14837|
p2150
I8
sV|L-Cysteine-Desulfurases|
p2151
I18
sV|CPD-12888|
p2152
I1
sV|CPD-15673|
p2153
I10
sV|CPD-201|
p2154
I50
sV|CPD-90|
p2155
I16
sV|CPD-504|
p2156
I6
sV|CPD-8121|
p2157
I32
sV|CPD-13315|
p2158
I1
sV|CPD-17016|
p2159
I14
sV|DIHYDRONEOPTERIN-P3|
p2160
I42
sV|THR-tRNAs|
p2161
I19
sV|3-BETA-HYDROXYANDROST-5-EN-17-ONE|
p2162
I10
sV|Charged-ASP-tRNAs|
p2163
I19
sV|PRO|
p2164
I99
sV|L-4-HYDROXYGLUTAMATE_SEMIALDEHYDE|
p2165
I8
sV|131-OXO-MAGNESIUM-PROTOPORPHYRIN-IX-13-M|
p2166
I54
sV|CHITIN|
p2167
I28
sV|CPD-10633|
p2168
I8
sV|PHOSPHORYL-CHOLINE|
p2169
I34
sV|CPD-16494|
p2170
I18
sV|PICOLINATE|
p2171
I13
sV|QUERCETIN-33-BISSULFATE|
p2172
I18
sV|CPD-9857|
p2173
I28
sV|CPD-9756|
p2174
I2
sV|CPD-12086|
p2175
I18
sV|CPD-67|
p2176
I16
sV|CPD-11018|
p2177
I9
sV|CPD-14902|
p2178
I18
sV|CPD-16867|
p2179
I4
sV|LL-DIAMINOPIMELATE|
p2180
I44
sV|SUC-COA|
p2181
I467
sV|CPD-12707|
p2182
I10
sV|BENZOYL-ACETATE|
p2183
I8
sV|CPD-431|
p2184
I79
sV|VALIDAMYCIN-A|
p2185
I8
sV|CPD-7848|
p2186
I16
sV|CPD-12213|
p2187
I18
sV|CPD-14425|
p2188
I58
sV|MALONYL-ACP|
p2189
I5010
sV|CPD-15598|
p2190
I4
sV|CPD-13845|
p2191
I8
sV|L-GULONO-1-4-LACTONE|
p2192
I22
sV|CPD-178|
p2193
I18
sV|BCCP-monomers|
p2194
I3
sV|CPD-16578|
p2195
I2
sV|CPD-7087|
p2196
I38
sV|CPD-676|
p2197
I117
sV|ENT-KAUR-16-EN-19-OL|
p2198
I38
sV|CPD1F-90|
p2199
I72
sV|--ABIETADIENE|
p2200
I24
sV|CPD-12377|
p2201
I21
sV|BISOHMYR-GLC|
p2202
I10
sV|CPDQT-340|
p2203
I30
sV|FRUCTOSELYSINE-6-PHOSPHATE|
p2204
I4
sV|CPD-10420|
p2205
I6
sV|11-cis-3-hydroxyretinal-RBPs|
p2206
I12
sV|CPDQT-286|
p2207
I18
sV|CPD-5421|
p2208
I18
sV|Soyasapogenol-B-Monoglucosides|
p2209
I3
sV|CPD-6761|
p2210
I18
sV|CPD-4618|
p2211
I6
sV|CPD-12351|
p2212
I10
sV|CPD-8683|
p2213
I4
sV|DEAMIDO-NAD|
p2214
I53
sV|CPD-10713|
p2215
I6
sV|CPD-8233|
p2216
I6
sV|CPD-11680|
p2217
I12
sV|CPD-12161|
p2218
I2
sV|PENTACHLOROPHENOL|
p2219
I5
sV|CPD-8665|
p2220
I15
sV|CPD-13821|
p2221
I24
sV|CPD-17100|
p2222
I18
sV|DEHYDROSPHINGANINE|
p2223
I44
sV|Ribonucleoside-Monophosphates|
p2224
I18
sV|CPD-14857|
p2225
I149
sV|Oxidized-adrenal-ferredoxins|
p2226
I61
sV|CPD-14296|
p2227
I3
sV|EPISTEROL|
p2228
I76
sV|CPD-16885|
p2229
I6
sV|CPD-692|
p2230
I11
sV|cis-cis-D17-29-3-oxo-C48-2-ACPs|
p2231
I362
sV|3-METHYLBENZOYL-COA|
p2232
I3
sV|CPD-10894|
p2233
I18
sV|CPD-10841|
p2234
I8
sV|ACETOACETYL-COA|
p2235
I300
sV|INDOLEYL-CPD|
p2236
I84
sV|Beta-phellandrene|
p2237
I6
sV|MALONYL-COA|
p2238
I1659
sV|BERGAPTOL|
p2239
I8
sV|CPD-5165|
p2240
I28
sV|CPD-355|
p2241
I1
sV|CPD-15907|
p2242
I22
sV|CPD66-73|
p2243
I24
sV|CPD-14406|
p2244
I44
sV|CPD-10332|
p2245
I18
sV|CPD-13684|
p2246
I64
sV|CPD-10349|
p2247
I5
sV|CYCLOHEXA-15-DIENE-1-CARBONYL-COA|
p2248
I60
sV|4-SULFOBENZYL-ALCOHOL|
p2249
I6
sV|N-ACETYL-SEROTONIN|
p2250
I18
sV|CPD-11729|
p2251
I36
sV|CPD-16792|
p2252
I22
sV|TYLOSIN|
p2253
I8
sV|S-SCOULERINE|
p2254
I74
sV|CPD-9413|
p2255
I32
sV|CPD-12751|
p2256
I3
sV|CPD-15647|
p2257
I1
sV|CPD-12500|
p2258
I5
sV|CPD-7602|
p2259
I8
sV|Core1|
p2260
I12
sV|trans-D2-cis-cis-D7-19-C38-3-ACPs|
p2261
I362
sV|CPD-5962|
p2262
I2
sV|CPD-14962|
p2263
I6
sV|CPD0-1107|
p2264
I3
sV|CPD-13044|
p2265
I12
sV|CPD-16972|
p2266
I4
sV|3-oxo-cis-D9-hexadecenoyl-ACPs|
p2267
I16
sV|L-arabinofuranose|
p2268
I24
sV|UDP-N-ACETYLMURAMATE|
p2269
I37
sV|CPD-14083|
p2270
I45
sV|CPD-9470|
p2271
I2
sV|CPD-10178|
p2272
I2
sV|CPD-725|
p2273
I52
sV|CPD-12098|
p2274
I8
sV|ALPHA-RIBAZOLE-5-P|
p2275
I52
sV|CPD-220|
p2276
I2
sV|CPD-8768|
p2277
I7
sV|BUTANOL|
p2278
I39
sV|CPDN-384|
p2279
I10
sV|Oligosaccharide-With-4-deoxy-D-gluc|
p2280
I10
sV|CPD-14300|
p2281
I24
sV|CPD-1136|
p2282
I18
sV|MN+2|
p2283
I2
sV|cis-cis-D7-19-C38-2-ACPs|
p2284
I362
sV|CPD-15257|
p2285
I10
sV|3-HYDROXY-PROPIONYL-COA|
p2286
I80
sV|CPD-10314|
p2287
I14
sV|CPD-578|
p2288
I6
sV|CPD-12620|
p2289
I2
sV|CPD-8168|
p2290
I54
sV|CPD-12262|
p2291
I2
sV|CPD-8924|
p2292
I16
sV|CPD-11905|
p2293
I14
sV|CPD-11972|
p2294
I8
sV|CPD-13746|
p2295
I6
sV|CPD-183|
p2296
I36
sV|CPD-11224|
p2297
I3
sV|4-SULFOBENZALDEHYDE|
p2298
I6
sV|CELLOBIOSE|
p2299
I4
sV|3S-all-trans-3-hydroxyretinol-RBPs|
p2300
I12
sV|CPD-12398|
p2301
I16
sV|CPD-11423|
p2302
I2
sV|INDOLE-3-ACETALDOXIME|
p2303
I83
sV|CPD-16844|
p2304
I18
sV|Peptidoglycan-with-L-lysine-pentapeptide|
p2305
I46
sV|CPD-412|
p2306
I54
sV|CPD-11994|
p2307
I122
sV|CPD-5821|
p2308
I8
sV|MONO-VINYL-PROTOCHLOROPHYLLIDE-A|
p2309
I54
sV|5-METHYLTHIOADENOSINE|
p2310
I28
sV|CPD-14239|
p2311
I4
sV|CPD-157|
p2312
I10
sV|CPD-14493|
p2313
I2
sV|CPD-4243|
p2314
I17
sV|3-CARBOXY-3-HYDROXY-ISOCAPROATE|
p2315
I22
sV|CPD-10542|
p2316
I8
sV|CPD-15803|
p2317
I48
sV|BENZOYLCOA|
p2318
I205
sV|CYCLOHEXANOL|
p2319
I4
sV|CPD-8088|
p2320
I60
sV|CPD0-1198|
p2321
I2
sV|CPD-10189|
p2322
I2
sV|Persulfurated-L-cysteine-desulfurases|
p2323
I18
sV|CPD-7853|
p2324
I8
sV|CPD-8735|
p2325
I6
sV|CPD-16640|
p2326
I24
sV|ADENOSYLCOBINAMIDE-P|
p2327
I52
sV|CPD-11889|
p2328
I12
sV|N-acetyl-D-glucosamine|
p2329
I24
sV|CPD-611|
p2330
I2
sV|CPD-14647|
p2331
I8
sV|All-trans-3-hydroxyretinol-RBPs|
p2332
I12
sV|CPD-16953|
p2333
I26
sV|CPD-10115|
p2334
I2
sV|CPD-16746|
p2335
I8
sV|CPD-7279|
p2336
I8
sV|CPD-15433|
p2337
I10
sV|CPD-12006|
p2338
I1
sV|Apo-AsbD-Proteins|
p2339
I9
sV|GDP-D-GLUCOSE|
p2340
I11
sV|Plant-Ceramides-IV|
p2341
I12
sV|CPD-6224|
p2342
I23
sV|2-O-acetyl-Rhamnogalacturns|
p2343
I5
sV|N-ACETYL-D-MANNOSAMINE-6P|
p2344
I12
sV|PUROMYCIN|
p2345
I9
sV|cis-delta7-3-hydroxycerotoyl-ACPs|
p2346
I362
sV|CARNITINE|
p2347
I22
sV|CPDQT-31|
p2348
I28
sV|2-PROTOCATECHUOYLPHLOROGLUCINOLCARBOXYLA|
p2349
I4
sV|CPD-14787|
p2350
I1
sV|6AS11AS-36A9-TRIHYDROXYPTEROCARPAN|
p2351
I12
sV|3-oxo-D-glucose-6-phosphate|
p2352
I4
sV|Ubiquitin-activating-protein-E1-L-cys|
p2353
I18
sV|CPD-14257|
p2354
I8
sV|CPD-10770|
p2355
I26
sV|CPD-13085|
p2356
I4
sV|CPD-9372|
p2357
I12
sV|CPD-2743|
p2358
I15
sV|CPD-14872|
p2359
I16
sV|GALACTITOL|
p2360
I10
sV|CPD-12282|
p2361
I7
sV|CPD-13198|
p2362
I32
sV|UDP-N-ACETYLMURAMOYL-L-ALANYL-D-GLUTAMYL|
p2363
I2
sV|Very-Long-Chain-Aldehydes|
p2364
I10
sV|CPD-12905|
p2365
I16
sV|CPD-15083|
p2366
I5
sV|TAXA-42011-DIEN-5-ALPHA-YL-ACETATE|
p2367
I24
sV|CPD-15666|
p2368
I22
sV|GLUTAMATE-1-SEMIALDEHYDE|
p2369
I10
sV|MPBQ|
p2370
I18
sV|UROCANATE|
p2371
I38
sV|CPD-14849|
p2372
I26
sV|CPD-13118|
p2373
I6
sV|CPD-2190|
p2374
I54
sV|CPD-17052|
p2375
I8
sV|Hydroxy-fatty-acids|
p2376
I15
sV|CPD-13163|
p2377
I18
sV|CPD-9984|
p2378
I1
sV|CPD-15688|
p2379
I18
sV|CPD-14126|
p2380
I56
sV|CPD-14945|
p2381
I17
sV|4-DEOXY-BETA-D-GLUC-4-ENURONOSYL-6S|
p2382
I60
sV|TAGATOSE-6-PHOSPHATE|
p2383
I24
sV|Mercapturates|
p2384
I4
sV|CPD-13698|
p2385
I98
sV|LANOSTEROL|
p2386
I80
sV|cis-cis-D17-29-C48-2-ACPs|
p2387
I362
sV|CPD-9409|
p2388
I72
sV|CPD-13758|
p2389
I28
sV|Oxidized-Cyc1-cytochromes|
p2390
I10
sV|L-EPINEPHRINE|
p2391
I39
sV|R-6-HYDROXYNICOTINE|
p2392
I30
sV|CPD-10631|
p2393
I8
sV|MALTOOLIGOSYLTREHALOSE|
p2394
I4
sV|CPD-12100|
p2395
I6
sV|OCTAPRENYL-METHOXY-BENZOQUINONE|
p2396
I30
sV|CPD-9754|
p2397
I2
sV|CPD-14893|
p2398
I14
sV|D-RIBULOSE-1-P|
p2399
I16
sV|CPD-14276|
p2400
I30
sV|CPDQT-41|
p2401
I22
sV|CPD-9965|
p2402
I30
sV|CPD-4208|
p2403
I4
sV|CPD-65|
p2404
I3
sV|CPD-12084|
p2405
I28
sV|Ox-Glutaredoxins|
p2406
I8
sV|CPD-9649|
p2407
I1
sV|CPD-11955|
p2408
I24
sV|CPD-15895|
p2409
I6
sV|CIS-CIS-MUCONATE|
p2410
I6
sV|12-DICHLOROETHANE|
p2411
I3
sV|CPD-12709|
p2412
I5
sV|URATE|
p2413
I133
sV|CPD-15968|
p2414
I18
sV|4-OXALOMESACONATE|
p2415
I56
sV|CPD-13618|
p2416
I48
sV|CPD-15105|
p2417
I1
sV|CPD-13847|
p2418
I12
sV|CPD-4222|
p2419
I12
sV|2-OH-3-Methyl-Saturated-Fatty-Acyl-CoA|
p2420
I10
sV|CPD-14423|
p2421
I58
sV|Lovastatin-nonaketide-synthase|
p2422
I12
sV|CPD-9924|
p2423
I24
sV|D-galacturonate-rhamnogalacturonan|
p2424
I12
sV|n-Alkanals|
p2425
I1
sV|CPD-17073|
p2426
I6
sV|Heparan-glucuronate-terminal|
p2427
I22
sV|ESTRONE|
p2428
I6
sV|POLYNEURIDINE-ALDEHYDE|
p2429
I34
sV|CPD-5741|
p2430
I16
sV|CPD-12379|
p2431
I5
sV|GLN-tRNAs|
p2432
I20
sV|Unspecified-Degradation-Products|
p2433
I11
sV|CPD-13458|
p2434
I6
sV|CPD-9772|
p2435
I16
sV|C34-Botryococcenes|
p2436
I8
sV|UNDECAPRENYL-DIPHOSPHATE|
p2437
I112
sV|CPD-884|
p2438
I24
sV|CPD-381|
p2439
I13
sV|L-DOPACHROME|
p2440
I12
sV|CPD-12357|
p2441
I14
sV|CPD-8681|
p2442
I8
sV|b-Keto-cis-D5-dodecenoyl-ACPs|
p2443
I10
sV|CPDQT-288|
p2444
I8
sV|trans-D2-cis-cis-D5-17-C36-3-ACPs|
p2445
I362
sV|CPD-14520|
p2446
I10
sV|CPD-3764|
p2447
I4
sV|CPD-13518|
p2448
I10
sV|CPD-3361|
p2449
I4
sV|2-METHYL-BUTYRYL-COA|
p2450
I22
sV|CPD-9986|
p2451
I14
sV|CPD-10230|
p2452
I12
sV|CPD-12524|
p2453
I5
sV|CPD-6203|
p2454
I6
sV|Charged-VAL-tRNAs|
p2455
I19
sV|CPD-9280|
p2456
I4
sV|CPD-12804|
p2457
I14
sV|2-O-MeCytidine4-tRNAGLY-GCC|
p2458
I14
sV|CPD0-971|
p2459
I20
sV|CPD-13827|
p2460
I8
sV|CPD-12163|
p2461
I6
sV|CPD-701|
p2462
I10
sV|CELLULOSE|
p2463
I3
sV|CPD-17102|
p2464
I18
sV|L-LYXOSE|
p2465
I3
sV|SPERMIDINE|
p2466
I79
sV|3-ALPHA7-ALPHA12-ALPHA-TRIHYDROX|
p2467
I56
sV|CPD-14298|
p2468
I14
sV|UDP|
p2469
I2796
sV|RIBITOL|
p2470
I1
sV|18-OXOOLEATE|
p2471
I52
sV|2-3-CARBOXY-3-AMINOPROPYL-L-HISTIDINE|
p2472
I10
sV|CPD-5802|
p2473
I7
sV|CPD-10041|
p2474
I52
sV|CPD-10843|
p2475
I4
sV|CPD1G-1353|
p2476
I905
sV|2-Me-Branched-234-Sat-FA|
p2477
I10
sV|S-NORLAUDANOSOLINE|
p2478
I12
sV|CPD-10330|
p2479
I4
sV|CPD-14167|
p2480
I8
sV|CPD-15905|
p2481
I8
sV|CPD-16790|
p2482
I33
sV|CPD66-75|
p2483
I24
sV|FLUORENE|
p2484
I8
sV|CPD-15368|
p2485
I24
sV|CYCLOARTENOL|
p2486
I109
sV|PA-N|
p2487
I2
sV|CPD-11727|
p2488
I1
sV|CPD-9440|
p2489
I4
sV|CPD-627|
p2490
I26
sV|L-IDONATE|
p2491
I15
sV|CPD-15317|
p2492
I69
sV|Fatty-Acids|
p2493
I79
sV|3-oxo-palmitoyl-ACPs|
p2494
I121
sV|4-METHOXY-3-INDOLYLMETHYL-GLUCOSINOLATE|
p2495
I31
sV|CPD-12579|
p2496
I14
sV|CPD-12054|
p2497
I32
sV|CPD66-28|
p2498
I2
sV|CPD-14960|
p2499
I3
sV|CPD-16457|
p2500
I6
sV|CPD-13811|
p2501
I6
sV|CPD66-53|
p2502
I2
sV|2-AMINOACRYLATE|
p2503
I98
sV|CPD-16970|
p2504
I8
sV|S-Substituted-Glutathione|
p2505
I29
sV|tRNA-Containing-N2-Methylguanine-26|
p2506
I28
sV|6-PYRUVOYL-5678-TETRAHYDROPTERIN|
p2507
I32
sV|CPD-7535|
p2508
I14
sV|CPD-9147|
p2509
I16
sV|Hexanoyl-ACPs|
p2510
I123
sV|CPD-946|
p2511
I6
sV|HEPARIN-GLUCOSAMINE|
p2512
I33
sV|Chondroitin-sulfate-GlcA2S|
p2513
I4
sV|CPD-10751|
p2514
I10
sV|CPD-8959|
p2515
I11
sV|CPD-14560|
p2516
I8
sV|Glucans|
p2517
I16
sV|KDO2-LIPID-IVA-COLD|
p2518
I6
sV|CPD-15255|
p2519
I8
sV|CPD-1134|
p2520
I28
sV|CPDQT-415|
p2521
I16
sV|CPD-219|
p2522
I16
sV|6-CHQ|
p2523
I8
sV|DEACETYLISOIPECOSIDE|
p2524
I14
sV|CPD-7025|
p2525
I2
sV|CPD-9165|
p2526
I16
sV|CPD-11395|
p2527
I44
sV|CPD-15568|
p2528
I2
sV|CPD-790|
p2529
I6
sV|CPD-9940|
p2530
I10
sV|CPD-8922|
p2531
I12
sV|CPD-11970|
p2532
I4
sV|CPD-5167|
p2533
I28
sV|CPD-14118|
p2534
I8
sV|CPD-9038|
p2535
I70
sV|INDOLE-CARBOXY-HYDRO-THIAZOLE|
p2536
I18
sV|TMP|
p2537
I127
sV|CPD-11470|
p2538
I2
sV|DICOUMAROL|
p2539
I1
sV|CPD-11210|
p2540
I6
sV|CPD-12396|
p2541
I18
sV|LysW-L-glutamate-5-semialdehyde|
p2542
I16
sV|Long-linear-glucans|
p2543
I37
sV|3-oxo-behenoyl-ACPs|
p2544
I362
sV|CPD-14793|
p2545
I3
sV|cis-cis-D15-27-3-hydroxyC46-2-ACPs|
p2546
I362
sV|CPD-4241|
p2547
I34
sV|CPD-12563|
p2548
I84
sV|CPD-108|
p2549
I20
sV|CPD-12230|
p2550
I7
sV|Soluble-Heteroglycans|
p2551
I32
sV|CPD-15801|
p2552
I16
sV|CPD0-2350|
p2553
I40
sV|CPD-15502|
p2554
I6
sV|IMIDAZOLE-ACETOL-P|
p2555
I18
sV|2-AMINO-MUCONATE|
p2556
I32
sV|CPD-14491|
p2557
I4
sV|CPD-4608|
p2558
I5
sV|BENZYLSUCCINATE|
p2559
I10
sV|CPD-7169|
p2560
I20
sV|CPD-16642|
p2561
I24
sV|CPD-10824|
p2562
I12
sV|CPD-9138|
p2563
I22
sV|11C-Retinol-RALBPs|
p2564
I22
sV|11-DEOXY-CORTISOL|
p2565
I4
sV|Heat|
p2566
I3
sV|CPD-7851|
p2567
I22
sV|CPD-1828|
p2568
I18
sV|CPD-16955|
p2569
I26
sV|CPD-11398|
p2570
I14
sV|DESMETHYLSULOCHRIN|
p2571
I8
sV|CPD-10113|
p2572
I4
sV|CPD-11861|
p2573
I6
sV|CPD-13439|
p2574
I5
sV|Menaquinones|
p2575
I87
sV|CPD-16542|
p2576
I2
sV|3-UREIDO-ISOBUTYRATE|
p2577
I4
sV|CPD-15431|
p2578
I10
sV|DIHYDROSIROHYDROCHLORIN|
p2579
I70
sV|CPD-842|
p2580
I8
sV|MtqC-Proteins|
p2581
I2
sV|CPD-9212|
p2582
I10
sV|CPD-16748|
p2583
I4
sV|5-L-GLUTAMYL-L-AMINO-ACID|
p2584
I13
sV|PALMITYL-COA|
p2585
I96
sV|CPD-14998|
p2586
I10
sV|CPD-4081|
p2587
I68
sV|CPDQT-33|
p2588
I28
sV|DIHYDROSTERCULIC-ACID|
p2589
I2
sV|CPD-14732|
p2590
I6
sV|CPD-9374|
p2591
I18
sV|CPD-10279|
p2592
I30
sV|CPD-11281|
p2593
I20
sV|CPD-6365|
p2594
I10
sV|CPD-14186|
p2595
I10
sV|ISOVALERYL-COA|
p2596
I18
sV|CPD-15766|
p2597
I11
sV|CPD-12179|
p2598
I10
sV|CPD0-1112|
p2599
I13
sV|DIHYDROXYINDOLE|
p2600
I10
sV|3-OXOADIPATE-ENOL-LACTONE|
p2601
I12
sV|CPD-867|
p2602
I28
sV|CPD-16013|
p2603
I58
sV|CPD-9329|
p2604
I16
sV|CPD-10168|
p2605
I24
sV|ETR-Quinols|
p2606
I88
sV|Petroselinoyl-ACPs|
p2607
I10
sV|CPD-17050|
p2608
I16
sV|Teichoic-peptidoglycan|
p2609
I7
sV|CPD-804|
p2610
I14
sV|CPD-301|
p2611
I30
sV|4-MALEYL-ACETOACETATE|
p2612
I8
sV|CPD-14632|
p2613
I18
sV|CPD-13161|
p2614
I18
sV|CPD-7399|
p2615
I4
sV|7-DEOXYLOGANIN|
p2616
I24
sV|2-Oxo-Acids|
p2617
I11
sV|CPD-9421|
p2618
I10
sV|CPD-14731|
p2619
I6
sV|R2-2OH-Straight-Chain-234-Sat-FA-CoA|
p2620
I10
sV|Rhodoquinols|
p2621
I10
sV|THMPT|
p2622
I32
sV|CPD-12884|
p2623
I16
sV|CPD-642|
p2624
I24
sV|CPD-9124|
p2625
I4
sV|CPD-14506|
p2626
I18
sV|CPD-14947|
p2627
I8
sV|CDP-36-DIDEOXY-D-MANNOSE|
p2628
I2
sV|PYRUVATE|
p2629
I1341
sV|5-DIPHOSPHO-1D-MYO-INOSITOL-12346P|
p2630
I24
sV|DsrC-disulfide-form|
p2631
I16
sV|Fe3-siderophores|
p2632
I8
sV|HOMOMETHIONINE|
p2633
I15
sV|CPD-15276|
p2634
I16
sV|CPD-13087|
p2635
I10
sV|CPD0-1113|
p2636
I4
sV|CPD-4201|
p2637
I20
sV|CPD-12607|
p2638
I81
sV|CPD-276|
p2639
I15
sV|CPD-9752|
p2640
I4
sV|CPDMETA-13643|
p2641
I10
sV|GLUCOTROPEOLIN|
p2642
I12
sV|L-Galactopyranose|
p2643
I14
sV|CPD-7075|
p2644
I3
sV|DIHYDROMONAPTERIN-TRIPHOSPHATE|
p2645
I4
sV|CPD-14274|
p2646
I30
sV|CPD-6364|
p2647
I10
sV|CPD-63|
p2648
I3
sV|CPD-13357|
p2649
I14
sV|CPD-6782|
p2650
I14
sV|NITROGEN-MOLECULE|
p2651
I15
sV|S-3-HYDROXYBUTANOYL-COA|
p2652
I150
sV|CPD1G-768|
p2653
I362
sV|CPD-11957|
p2654
I4
sV|Core-Protein-L-Serine|
p2655
I3
sV|CPD-8012|
p2656
I10
sV|2R-HYDROPEROXY-FATTY-ACIDS|
p2657
I9
sV|CPD-14474|
p2658
I2
sV|CPD-9529|
p2659
I23
sV|CPD-11939|
p2660
I16
sV|CPD-11748|
p2661
I36
sV|4-METHYLCATECHOL|
p2662
I14
sV|CPD-8843|
p2663
I6
sV|ISOBUTYRYL-COA|
p2664
I46
sV|THIAMINE|
p2665
I10
sV|CPD-3945|
p2666
I80
sV|CHOLATE|
p2667
I38
sV|DETHIOBIOTIN|
p2668
I8
sV|Thyroglobulin-3-iodotyrosines|
p2669
I15
sV|CPD-10818|
p2670
I26
sV|CPD-11786|
p2671
I35
sV|CPD-16994|
p2672
I22
sV|CPD-12279|
p2673
I24
sV|CPD-16667|
p2674
I4
sV|CPD0-2184|
p2675
I10
sV|2-R-HYDROXYPROPYL-COM|
p2676
I12
sV|Omega-1-Hydroxy-Fatty-Acids|
p2677
I5
sV|CPD-13670|
p2678
I27
sV|CPD-7237|
p2679
I56
sV|MALTOTETRAOSE|
p2680
I18
sV|N-METHYLHYDANTOIN|
p2681
I8
sV|CPD-12355|
p2682
I5
sV|CPD-14891|
p2683
I14
sV|CPD-14516|
p2684
I14
sV|CPD-1907|
p2685
I2
sV|CPD-13246|
p2686
I16
sV|ACYL-ACP|
p2687
I15
sV|CPD-8978|
p2688
I2
sV|CPD-6721|
p2689
I5
sV|4-PHOSPHONOOXY-THREONINE|
p2690
I14
sV|L-PHOSPHATIDATE|
p2691
I60
sV|CPD-13825|
p2692
I8
sV|CPD-15778|
p2693
I5
sV|CPD-3622|
p2694
I9
sV|CPD-707|
p2695
I129
sV|CPD1G-408|
p2696
I362
sV|CPD-9319|
p2697
I8
sV|PALMATINE|
p2698
I6
sV|4-AMINO-BUTYRATE|
p2699
I82
sV|GLYOX|
p2700
I277
sV|CPD-17104|
p2701
I14
sV|Glutaryl-ACP-methyl-esters|
p2702
I20
sV|CPD-14468|
p2703
I10
sV|CPD-11411|
p2704
I14
sV|CPD-13128|
p2705
I1
sV|Reduced-hydrogenase-3|
p2706
I2
sV|CPD-10511|
p2707
I12
sV|2-3-DIHYDROXYPHENYL-PROPIONATE|
p2708
I15
sV|CPD-6403|
p2709
I2
sV|CPD-10898|
p2710
I16
sV|CPD-10845|
p2711
I7
sV|CPD-12402|
p2712
I16
sV|CPD-7386|
p2713
I2
sV|CPD-12479|
p2714
I28
sV|CPD66-77|
p2715
I16
sV|CPD-12679|
p2716
I28
sV|O-14-ALPHA-L-DIHYDROSTREPTOSYL-STREPTID|
p2717
I36
sV|7-8-DIHYDROPTEROATE|
p2718
I4
sV|CPD-15643|
p2719
I6
sV|cis-delta7-3-oxo-cerotoyl-ACPs|
p2720
I362
sV|CPD-11725|
p2721
I1
sV|UDP-APIOSE|
p2722
I4
sV|CPD-14147|
p2723
I2
sV|CPD-10575|
p2724
I1
sV|CPD0-882|
p2725
I18
sV|CPD-14966|
p2726
I18
sV|Oxidized-flavodoxins|
p2727
I55
sV|CPD-13627|
p2728
I14
sV|4-hydroxybenzoate|
p2729
I182
sV|CPDQT-300|
p2730
I16
sV|CPD66-51|
p2731
I10
sV|CPD-729|
p2732
I39
sV|CPD-10236|
p2733
I24
sV|CPD-7096|
p2734
I4
sV|CPD-14821|
p2735
I6
sV|CPD-15678|
p2736
I10
sV|N-FORMYLKYNURENINE|
p2737
I38
sV|LysW-Alpha-Aminoadipate|
p2738
I18
sV|CPD-10503|
p2739
I56
sV|CPD-529|
p2740
I54
sV|FORMONONETIN|
p2741
I26
sV|CPD-15692|
p2742
I18
sV|SPHINGOSINE|
p2743
I12
sV|UDP-4-AMINO-4-DEOXY-L-ARABINOSE|
p2744
I10
sV|HECT-Ubiquitin-carrier-protein-E3-L-cys|
p2745
I12
sV|CPD-10753|
p2746
I10
sV|CPDQT-417|
p2747
I16
sV|CPD-16539|
p2748
I16
sV|CPD-14537|
p2749
I8
sV|BCCP-dimers|
p2750
I9
sV|Oxidized-Putidaredoxins|
p2751
I14
sV|L-Rhamnose-rhamnogalacturonan|
p2752
I15
sV|CPD-15996|
p2753
I10
sV|2-Me-Branched-234-Sat-Fatty-Acyl-CoA|
p2754
I5
sV|3-oxo-C78-alpha-mycolate-pks13|
p2755
I362
sV|CPD-12653|
p2756
I10
sV|CPD-11393|
p2757
I2
sV|3-METHYLTHIOPROPYL-DESULFO-GLUCOSINOLATE|
p2758
I22
sV|CPD-13713|
p2759
I8
sV|CPD-10258|
p2760
I18
sV|CPD-8033|
p2761
I23
sV|CPD4FS-7|
p2762
I9
sV|Oxidized-CycA1-cytochromes|
p2763
I10
sV|3-UREIDO-PROPIONATE|
p2764
I4
sV|CPD-14165|
p2765
I14
sV|BILIRUBIN|
p2766
I1
sV|CPD-4592|
p2767
I2
sV|CPD-13966|
p2768
I28
sV|CPD-5169|
p2769
I28
sV|CPD-359|
p2770
I30
sV|CPD-8699|
p2771
I10
sV|Methylated-MtmC-Proteins|
p2772
I2
sV|CPD0-2106|
p2773
I8
sV|1-4-beta-D-Glucan|
p2774
I15
sV|CPD-11998|
p2775
I12
sV|2-HYDROXYDAIDZEIN|
p2776
I18
sV|3-HYDROXY-3-METHYL-GLUTARYL-COA|
p2777
I72
sV|CPD-12121|
p2778
I2
sV|CPD-153|
p2779
I30
sV|CPD-12232|
p2780
I1
sV|CPD-14795|
p2781
I25
sV|7-AMINOMETHYL-7-DEAZAGUANINE|
p2782
I6
sV|CPD-1771|
p2783
I16
sV|CPD-14268|
p2784
I2
sV|L-HISTIDINOL-P|
p2785
I18
sV|D-1-GUANIDINO-1-DEOXY-3-DEHYDRO-SCYLLO-I|
p2786
I36
sV|CPD-10484|
p2787
I18
sV|CPD-9602|
p2788
I6
sV|CPD-10318|
p2789
I4
sV|CPD0-2352|
p2790
I45
sV|CPD-15500|
p2791
I33
sV|CPD-14508|
p2792
I18
sV|2-Me-Branched-234-Sat-FALD|
p2793
I10
sV|TAXA-42011-DIEN-5A13A-DIOL|
p2794
I24
sV|2-Oxo-carboxylates|
p2795
I107
sV|CPD-8084|
p2796
I54
sV|CPD-822|
p2797
I8
sV|CPD-16644|
p2798
I40
sV|CPDQT-435|
p2799
I18
sV|CYCLOHEX-13-DIENE-56-DIHYDROXY-1-CARBO|
p2800
I14
sV|CPD-13655|
p2801
I3
sV|CPD-13370|
p2802
I10
sV|G5-pppR-mRNAs|
p2803
I4
sV|CPD-7857|
p2804
I24
sV|CPD-12209|
p2805
I7
sV|CPD-8764|
p2806
I2
sV|6-O-METHYLNORLAUDANOSOLINE|
p2807
I16
sV|ANILINE|
p2808
I8
sV|Trans-D3-cis-D9-hexadecenoyl-ACPs|
p2809
I16
sV|CPD-16540|
p2810
I8
sV|LIPOIC-ACID|
p2811
I13
sV|CPD-11863|
p2812
I3
sV|SEPO3|
p2813
I10
sV|2-O-Methyluridine44-tRNASer|
p2814
I14
sV|CPD-13906|
p2815
I14
sV|CPD-8214|
p2816
I10
sV|CPD-8619|
p2817
I38
sV|CPD-6862|
p2818
I2
sV|CPD-6142|
p2819
I4
sV|CPD-1301|
p2820
I22
sV|PHENYLACETOTHIOHYDROXIMATE|
p2821
I18
sV|CPD-13539|
p2822
I16
sV|CPD-9788|
p2823
I10
sV|IRBPs|
p2824
I22
sV|CPD-12449|
p2825
I4
sV|CPD-10418|
p2826
I3
sV|OLEOYL-COA|
p2827
I64
sV|CPDQT-35|
p2828
I28
sV|Arachidoyl-ACPs|
p2829
I362
sV|FORMATE|
p2830
I544
sV|CPD-12394|
p2831
I30
sV|L-SORBOSONE|
p2832
I12
sV|CPD-16771|
p2833
I2
sV|NADPH|
p2834
I14399
sV|CPD-8723|
p2835
I12
sV|CPD-14940|
p2836
I17
sV|CPD-2747|
p2837
I17
sV|CPD-11225|
p2838
I6
sV|CPD-4823|
p2839
I18
sV|L-RHAMNOFURANOSE|
p2840
I39
sV|CPD-329|
p2841
I14
sV|ALLOCRYPTOPINE|
p2842
I8
sV|ARG|
p2843
I209
sV|CPD-9088|
p2844
I16
sV|CPD-10277|
p2845
I11
sV|CPD-13947|
p2846
I6
sV|CPD-12849|
p2847
I56
sV|Glycerophosphodiesters|
p2848
I1
sV|CPD-10646|
p2849
I2
sV|CPD-13149|
p2850
I16
sV|CDP-N-METHYLETHANOLAMIN|
p2851
I8
sV|CPD-15903|
p2852
I8
sV|RIBOFLAVIN|
p2853
I53
sV|CPD-15731|
p2854
I13
sV|CPD-15764|
p2855
I11
sV|NADH|
p2856
I10337
sV|CPD0-934|
p2857
I18
sV|2-Hydroxy-2-methylbutyronitriles|
p2858
I12
sV|CPD-8120|
p2859
I44
sV|CPD-14282|
p2860
I30
sV|CPD-14845|
p2861
I24
sV|CPD-13167|
p2862
I11
sV|D-BETA-D-HEPTOSE-1-P|
p2863
I8
sV|CPD-7228|
p2864
I6
sV|CPD-15284|
p2865
I2
sV|CPD-17007|
p2866
I22
sV|CPD-806|
p2867
I2
sV|CPD-14630|
p2868
I18
sV|CPD-14348|
p2869
I28
sV|CPD-9423|
p2870
I14
sV|CPD-13709|
p2871
I28
sV|cis-cis-D11-23-3-hydroxyC42-2-ACPs|
p2872
I362
sV|CPD-615|
p2873
I3
sV|RX|
p2874
I11
sV|LACTOSE-6P|
p2875
I3
sV|CPD-9026|
p2876
I16
sV|CPD-14122|
p2877
I56
sV|cis-delta13-lacceroyl-ACPs|
p2878
I362
sV|N6N6N6-TRIMETHYL-L-LYSINE|
p2879
I3
sV|CPD-14941|
p2880
I17
sV|CPD-13694|
p2881
I64
sV|trans-D2-cis-D17-C36-ACPs|
p2882
I362
sV|CPD-13016|
p2883
I33
sV|DOLICHOL|
p2884
I6
sV|CPD-8477|
p2885
I5
sV|CPD-14214|
p2886
I33
sV|CPD-10211|
p2887
I24
sV|CPD-6482|
p2888
I3
sV|cis-cis-D15-33-3-oxo-C52-2-ACPs|
p2889
I362
sV|N-4-GUANIDINOBUTYL-4-HYDROXYCINNAMAMID|
p2890
I2
sV|CPD-9376|
p2891
I10
sV|2-CL-MUCONATE|
p2892
I16
sV|NovH-proteins|
p2893
I8
sV|CPD-16638|
p2894
I24
sV|CPD-61|
p2895
I16
sV|4Fe-4S+2|
p2896
I13
sV|CPD-9501|
p2897
I2
sV|5-HYDROXY-FERULIC-ACID|
p2898
I6
sV|CPD-9961|
p2899
I8
sV|PigG-pyrrole-2-carboxylate|
p2900
I22
sV|No-Alkenyl-Thiohydroximate-O-Sulfates|
p2901
I3
sV|CPD-11775|
p2902
I12
sV|CPD-8941|
p2903
I4
sV|CPD-6201|
p2904
I14
sV|CPD-2961|
p2905
I69
sV|CPD-1106|
p2906
I6
sV|Thyroglobulin-L-thyroxines|
p2907
I10
sV|CPD-13339|
p2908
I56
sV|CPD-10364|
p2909
I3
sV|CPD-12215|
p2910
I9
sV|MG-PROTOPORPHYRIN|
p2911
I54
sV|CPD-11937|
p2912
I16
sV|CPD-16538|
p2913
I16
sV|FORMYL-THF-GLU-N|
p2914
I204
sV|TYR-tRNAs|
p2915
I20
sV|CPD-4863|
p2916
I12
sV|CPD0-2364|
p2917
I16
sV|MALTOSE|
p2918
I67
sV|PROPANE-1-2-DIOL|
p2919
I13
sV|SIROHEME|
p2920
I7
sV|CPD-16665|
p2921
I2
sV|CPD-16612|
p2922
I14
sV|2-OXINDOLE-3-ACETIC-ACID|
p2923
I24
sV|CPD-8745|
p2924
I4
sV|CPD-11566|
p2925
I10
sV|ACETOIN|
p2926
I5
sV|CPD-8710|
p2927
I10
sV|tRNAs-containing-epoxy-quenosine|
p2928
I6
sV|CPD-16738|
p2929
I10
sV|ALPHA-TOCOPHEROL|
p2930
I8
sV|cis-delta5-3-hydroxylignoceroyl-ACPs|
p2931
I362
sV|CPD-10556|
p2932
I84
sV|CPD-8685|
p2933
I3
sV|Galactosyl-galactosyl-diacyl-glycerols|
p2934
I3
sV|CPD-14514|
p2935
I7
sV|CPD-1905|
p2936
I11
sV|CPD-12855|
p2937
I6
sV|PTS-I-Histidines|
p2938
I2
sV|GLUCOSAMINE-1P|
p2939
I44
sV|N-ACETYL-D-GALACTOSAMINE-6-PHOSPHATE|
p2940
I11
sV|MI-PENTAKISPHOSPHATE|
p2941
I14
sV|tRNA-Containing-N1-MethylAdenine-58|
p2942
I14
sV|DIHYDROMETHANOPHENAZINE|
p2943
I6
sV|CPD-16586|
p2944
I3
sV|CPD-705|
p2945
I2
sV|4-HYDROXY-2-KETOVALERATE|
p2946
I4
sV|D-SEDOHEPTULOSE-1-7-P2|
p2947
I26
sV|IMIDAZOLE-PYRUVATE|
p2948
I6
sV|ALLANTOATE|
p2949
I6
sV|R-12-EPOXYPROPANE|
p2950
I12
sV|CPD8J2-2|
p2951
I4
sV|CPD-11413|
p2952
I4
sV|CPD-15741|
p2953
I16
sV|CPD-8268|
p2954
I6
sV|CPD-7076|
p2955
I11
sV|CPD-10847|
p2956
I14
sV|CPD-12400|
p2957
I16
sV|Siderophore|
p2958
I8
sV|3-KETO-L-GULONATE|
p2959
I22
sV|CPD-6401|
p2960
I6
sV|CPD1F-120|
p2961
I24
sV|CPD-6082|
p2962
I10
sV|CPD66-79|
p2963
I24
sV|CPD-12491|
p2964
I6
sV|3-4DH3-4DHFLUORENE|
p2965
I1
sV|PYRIDOXINE|
p2966
I60
sV|2-oxoglutarate-dehydrogenase-E2-lipoyl-c|
p2967
I4
sV|CPD-14866|
p2968
I36
sV|CPD-14141|
p2969
I8
sV|CPD-623|
p2970
I2
sV|Hex-2-enoyl-ACPs|
p2971
I116
sV|CPD-689|
p2972
I41
sV|CPD-360|
p2973
I20
sV|CPD-13457|
p2974
I6
sV|CPD66-57|
p2975
I3
sV|CPD-337|
p2976
I30
sV|Deaminated-Amine-Donors|
p2977
I81
sV|Dietary-retinyl-esters|
p2978
I6
sV|CD-S-SP-Complex|
p2979
I18
sV|TDP-D-FUCOSAMINE|
p2980
I6
sV|CPD-16567|
p2981
I8
sV|CHORISMATE|
p2982
I96
sV|24DINH2-PENTANOATE|
p2983
I16
sV|CPD-4203|
p2984
I20
sV|CPD-14521|
p2985
I10
sV|CPD-1007|
p2986
I8
sV|CPD-8908|
p2987
I20
sV|CPD-15690|
p2988
I18
sV|CARBAMYUL-L-ASPARTATE|
p2989
I10
sV|CPD-3321|
p2990
I2
sV|Biotinylated-MadF-Proteins|
p2991
I6
sV|CPD-10755|
p2992
I5
sV|CPD-9161|
p2993
I16
sV|CPD-11391|
p2994
I2
sV|CPD-15259|
p2995
I6
sV|CPD-10614|
p2996
I1
sV|CPD-9190|
p2997
I3
sV|CPD0-2108|
p2998
I8
sV|CPD-8162|
p2999
I27
sV|CPD-8815|
p3000
I14
sV|CPD-16623|
p3001
I65
sV|L-GAMMA-GLUTAMYLCYSTEINE|
p3002
I14
sV|CPD-16526|
p3003
I2
sV|CPD-10708|
p3004
I1
sV|CPD-11950|
p3005
I12
sV|D-Phenylalanyl-Acps|
p3006
I4
sV|CPD4FS-5|
p3007
I8
sV|ALLYSINE|
p3008
I50
sV|CPD-13832|
p3009
I10
sV|Maltodextrins|
p3010
I47
sV|cis-cis-D3-15-C34-2-ACPs|
p3011
I362
sV|CPD-15901|
p3012
I4
sV|CPD-8962|
p3013
I11
sV|CPD-463|
p3014
I6
sV|CPD-14889|
p3015
I14
sV|LATHYRINE|
p3016
I2
sV|CPD-15056|
p3017
I61
sV|CPD-7138|
p3018
I52
sV|CPD-13205|
p3019
I2
sV|CPD-9847|
p3020
I3
sV|cis-delta17-C36-ACPs|
p3021
I362
sV|CPD-9546|
p3022
I1
sV|CPD-14495|
p3023
I4
sV|CPD-4746|
p3024
I8
sV|D-GLT|
p3025
I28
sV|5-METHYLCYTOSINE-34-TRNA-PRECURSORS|
p3026
I14
sV|CPDQT-296|
p3027
I16
sV|CPD-16584|
p3028
I12
sV|CPD-10548|
p3029
I56
sV|16-HYDROXYPALMITATE|
p3030
I50
sV|CPD-15506|
p3031
I22
sV|TRICHLOROETHENE|
p3032
I24
sV|3-oxo-petroselinoyl-ACPs|
p3033
I10
sV|CPD-791|
p3034
I6
sV|3-5-ADP|
p3035
I339
sV|CPD-8086|
p3036
I60
sV|D-arabinopyranose|
p3037
I9
sV|GUANOSINE_DIPHOSPHATE_FUCOSE|
p3038
I15
sV|+-bornyl-diphosphate|
p3039
I4
sV|BCAA-dehydrogenase-2MP-DH-lipoyl|
p3040
I4
sV|CPD-15746|
p3041
I10
sV|CYCLOEUCALENOL|
p3042
I86
sV|CAPSAICIN|
p3043
I5
sV|Thiocarboxyadenylated-ThiS-Proteins|
p3044
I24
sV|CPD-3521|
p3045
I9
sV|ISO-PROPANOL|
p3046
I11
sV|CPD-13900|
p3047
I14
sV|CPD-12000|
p3048
I6
sV|CPD1F-86|
p3049
I6
sV|CPD-12307|
p3050
I18
sV|4-CARBOXYMETHYLENEBUT-2-EN-4-OLIDE|
p3051
I14
sV|S-ALLANTOIN|
p3052
I7
sV|CPDQT-37|
p3053
I28
sV|CPD-14766|
p3054
I10
sV|1-2-Diglycerides|
p3055
I6
sV|cis-delta21-3-hydroxyC40-ACPs|
p3056
I362
sV|Acetan|
p3057
I9
sV|INDOLE-3-CARBOXALDEHYDE|
p3058
I26
sV|CPD-15181|
p3059
I10
sV|CPD-15176|
p3060
I3
sV|CPD-7960|
p3061
I10
sV|1-KETO-2-METHYLVALERATE|
p3062
I48
sV|CPD-10275|
p3063
I12
sV|CPD-14736|
p3064
I64
sV|Fatty-Aldehydes|
p3065
I16
sV|ARABINOSE-5P|
p3066
I8
sV|CPD-12611|
p3067
I16
sV|CPD-2749|
p3068
I64
sV|METHYL-GROUP|
p3069
I4
sV|tRNA-Adenine-58|
p3070
I14
sV|CPD-4573|
p3071
I76
sV|L-CITRULLINE|
p3072
I92
sV|NDP-alpha-D-glucoses|
p3073
I30
sV|CPD-8671|
p3074
I12
sV|DIHYDROCHELIRUBINE|
p3075
I64
sV|cis-cis-D13-25-3-oxo-C44-2-ACPs|
p3076
I362
sV|cis-cis-D19-37-C56-2-ACPs|
p3077
I543
sV|CPD-15733|
p3078
I26
sV|CPD-13835|
p3079
I10
sV|CPD0-932|
p3080
I18
sV|CPD-10066|
p3081
I19
sV|CPD-12175|
p3082
I14
sV|trans-D2-cis-D21-C40-ACPs|
p3083
I362
sV|2-HYDROXY-2-METHYLPROPANENITRILE|
p3084
I23
sV|cis-cis-D19-37-3-oxo-C56-2-ACPs|
p3085
I362
sV|CPD-14847|
p3086
I21
sV|CPD-14280|
p3087
I30
sV|CPD-15286|
p3088
I6
sV|OXIDIZED-GLUTATHIONE|
p3089
I76
sV|CPD-13165|
p3090
I22
sV|CPD-11961|
p3091
I4
sV|INDOLE-3-ACETYL-BETA-6-D-GLUCOSE|
p3092
I12
sV|CPD-14649|
p3093
I8
sV|CPD-341|
p3094
I30
sV|CPD-14120|
p3095
I56
sV|S-NORCOCLAURINE|
p3096
I20
sV|DsrE-L-Cysteine|
p3097
I8
sV|CPD-9425|
p3098
I14
sV|CPD-984|
p3099
I4
sV|DEMETHYLMACROCIN|
p3100
I16
sV|CPD-14943|
p3101
I34
sV|CPD-13696|
p3102
I98
sV|PHOSPHATIDYLINOSITOL-345-TRIPHOSPHATE|
p3103
I23
sV|CPD-209|
p3104
I14
sV|CPD-15657|
p3105
I44
sV|CPD-1071|
p3106
I16
sV|CHLOROACETIC-ACID|
p3107
I6
sV|CPD-7638|
p3108
I32
sV|CPD-10213|
p3109
I12
sV|TDP-FUC4NAC|
p3110
I7
sV|3-oxo-arachidoyl-ACPs|
p3111
I362
sV|CPD-9006|
p3112
I22
sV|CPD-7643|
p3113
I32
sV|CPD-8891|
p3114
I8
sV|a-radical-of-luteolin-7-iOi-diglucuronid|
p3115
I3
sV|CIS-3-HEXENOL|
p3116
I25
sV|CPD-14978|
p3117
I12
sV|VANILLIN|
p3118
I21
sV|CPD-9592|
p3119
I3
sV|CPD-12969|
p3120
I18
sV|CPD-13029|
p3121
I18
sV|CPD-9155|
p3122
I16
sV|CPD-16599|
p3123
I13
sV|PROTEIN-N-UBIQUITYL-LYSINE|
p3124
I12
sV|Medicagenate-Monoglucosides|
p3125
I3
sV|CPD-36|
p3126
I36
sV|CPD-11953|
p3127
I28
sV|CPD-8943|
p3128
I4
sV|CPD-482|
p3129
I20
sV|CPD-15267|
p3130
I12
sV|N-ACETYL-GLUTAMYL-P|
p3131
I40
sV|HYDROGEN-MOLECULE|
p3132
I41
sV|Uridine44-in-tRNA-Ser|
p3133
I14
sV|CPD-18|
p3134
I52
sV|CPD-12616|
p3135
I16
sV|CPD-9525|
p3136
I23
sV|XANTHOSINE|
p3137
I40
sV|CPD-843|
p3138
I6
sV|INDOLE-3-GLYOXYLATE|
p3139
I24
sV|CPD-11968|
p3140
I4
sV|P-NITROPHENOL|
p3141
I9
sV|CPD-7243|
p3142
I56
sV|CPD-15685|
p3143
I18
sV|CPD-11448|
p3144
I8
sV|CPD-7144|
p3145
I10
sV|CPD-11433|
p3146
I2
sV|N-ACETYL-5-METHOXY-TRYPTAMINE|
p3147
I15
sV|CPD-13452|
p3148
I2
sV|CPD-9778|
p3149
I8
sV|XYLULOSE-5-PHOSPHATE|
p3150
I253
sV|L-rhamnopyranose|
p3151
I13
sV|CPD-12385|
p3152
I18
sV|ALPHA-GLUCOSE|
p3153
I60
sV|CPD-11782|
p3154
I10
sV|CPD-882|
p3155
I22
sV|CPD-8712|
p3156
I5
sV|R-N-METHYLCOCLAURINE|
p3157
I2
sV|4S5S-45-DIHYDROXY-26-DIOXOHEXANOATE|
p3158
I12
sV|SHIKIMATE|
p3159
I68
sV|R-3-hydroxyarachidoyl-ACPs|
p3160
I362
sV|L-XYLULOSE|
p3161
I18
sV|CPD-4610|
p3162
I6
sV|CPD-15074|
p3163
I10
sV|CPD1F-766|
p3164
I125
sV|CPD-11918|
p3165
I4
sV|CPDQT-425|
p3166
I13
sV|CPD-14512|
p3167
I14
sV|CPD-1903|
p3168
I4
sV|DIMETHYLARSINOUS-ACID|
p3169
I6
sV|LACTOYL-COA|
p3170
I10
sV|CPD-12857|
p3171
I3
sV|DIACYLGLYCEROL-PYROPHOSPHATE|
p3172
I8
sV|Acyl-Phosphates|
p3173
I8
sV|CPD1F-461|
p3174
I30
sV|CPD-12348|
p3175
I6
sV|CPD-7238|
p3176
I56
sV|AMIDINOPROCLAVAMINATE|
p3177
I14
sV|CPD0-2244|
p3178
I10
sV|DEOXY-D-RIBOSE-1-PHOSPHATE|
p3179
I19
sV|CPD-11415|
p3180
I4
sV|CPD-10515|
p3181
I24
sV|CPD-12406|
p3182
I16
sV|CPD-927|
p3183
I25
sV|CPD-10849|
p3184
I14
sV|N-FORMIMINO-GLYCINE|
p3185
I78
sV|CPD-8847|
p3186
I16
sV|CPD-4861|
p3187
I12
sV|4-METHYL-MYO-INOSITOL|
p3188
I5
sV|CPD-170|
p3189
I15
sV|CPD-13099|
p3190
I8
sV|CPD-9304|
p3191
I12
sV|3-oxo-C86-cis-keto-mycolate-pks13|
p3192
I362
sV|CPD1F-126|
p3193
I2
sV|CPD-12675|
p3194
I28
sV|3-DE-H-CARNITINE|
p3195
I14
sV|CPD-12973|
p3196
I18
sV|CPD-12493|
p3197
I40
sV|D-RIBULOSE-15-P2|
p3198
I56
sV|CPD-3185|
p3199
I17
sV|CPD-14864|
p3200
I78
sV|CPD-13135|
p3201
I26
sV|CPD-14143|
p3202
I13
sV|CPD-12513|
p3203
I6
sV|CPD-15729|
p3204
I48
sV|CPD66-55|
p3205
I15
sV|DEHYDRO-DEOXY-GALACTONATE-PHOSPHATE|
p3206
I16
sV|CPD-4461|
p3207
I2
sV|CPD-13019|
p3208
I22
sV|SYRINGETIN|
p3209
I81
sV|CPD-16561|
p3210
I4
sV|CPD-10170|
p3211
I24
sV|GLC-6-P|
p3212
I380
sV|CPD-17068|
p3213
I8
sV|CPD-11688|
p3214
I4
sV|CPD-9980|
p3215
I24
sV|O-Glucosylsterols|
p3216
I12
sV|CPD-7092|
p3217
I7
sV|PigH-3-oxo-3-1H-pyrrol-2-yl-propanoate|
p3218
I22
sV|CPD-1005|
p3219
I8
sV|CPD-12748|
p3220
I3
sV|CPD-1962|
p3221
I2
sV|CPD-14533|
p3222
I5
sV|CPD-10616|
p3223
I3
sV|CPDQT-413|
p3224
I16
sV|CPD-9677|
p3225
I2
sV|CPD-12628|
p3226
I1
sV|CPD-8160|
p3227
I27
sV|CPD-8|
p3228
I20
sV|CPD-7726|
p3229
I2
sV|Butanoyl-ACPs|
p3230
I132
sV|3-OXOPIMELOYL-COA|
p3231
I54
sV|CPD-12125|
p3232
I1
sV|N-6-AMINOHEXANOYL-6-AMINOHEXANOATE|
p3233
I12
sV|DCMP|
p3234
I23
sV|ILE|
p3235
I80
sV|CPD66-81|
p3236
I8
sV|CPD-13717|
p3237
I8
sV|GUANOSINE-5DP-3DP|
p3238
I15
sV|NADH-P-OR-NOP|
p3239
I1806
sV|THREO-DS-ISO-CITRATE|
p3240
I329
sV|CPD-8073|
p3241
I81
sV|THIAMINE-PYROPHOSPHATE|
p3242
I12
sV|CPD-461|
p3243
I42
sV|CPD-8960|
p3244
I6
sV|Lipoyl-Protein-N6-lipoyllysine|
p3245
I11
sV|CPD-106|
p3246
I10
sV|CPD-15943|
p3247
I16
sV|CPD-9544|
p3248
I15
sV|CPD-4744|
p3249
I24
sV|CPD-79|
p3250
I3
sV|CPD-14912|
p3251
I9
sV|CPD-13612|
p3252
I98
sV|CPD-7999|
p3253
I8
sV|CPD-16015|
p3254
I74
sV|CHONDROITIN-4-SULFATE|
p3255
I8
sV|POLY-OH-DEC-N|
p3256
I4
sV|CPD-8080|
p3257
I81
sV|Alpha-hydroxydihydroceramides|
p3258
I12
sV|m7G5-pppRm-R-mRNAs|
p3259
I2
sV|CPD-16582|
p3260
I12
sV|Cyanophycin-aspartate|
p3261
I8
sV|CPD-11881|
p3262
I14
sV|CROTONOBETAINYL-COA|
p3263
I6
sV|CPD-10741|
p3264
I10
sV|OH-ACYL-ACP|
p3265
I11
sV|SoxY-S-Thiocysteine|
p3266
I10
sV|CPD-12205|
p3267
I14
sV|CPD-9194|
p3268
I12
sV|CPD-11867|
p3269
I7
sV|7-HYDROXY-2-OXINDOLE-3-ACETIC-ACID|
p3270
I4
sV|trans-D20-39-OH-40-Me-C60-1-ACPs|
p3271
I362
sV|CIT|
p3272
I334
sV|CPD1F-84|
p3273
I12
sV|CPD-9214|
p3274
I5
sV|CPD-13620|
p3275
I38
sV|MtsB-Proteins|
p3276
I6
sV|NARINGENIN-7-O-BETA-D-GLUCOSIDE|
p3277
I6
sV|R-1-AMINOPROPAN-2-YL-PHOSPHATE|
p3278
I25
sV|CPDQT-39|
p3279
I28
sV|UDP-AA-GLUTAMATE|
p3280
I28
sV|CPD-10414|
p3281
I4
sV|L-glutamyl-tRNAGln|
p3282
I2
sV|CPD-7966|
p3283
I10
sV|124-TCB|
p3284
I11
sV|CPD-8695|
p3285
I10
sV|CPD-10273|
p3286
I12
sV|TREHALOSE-6P|
p3287
I913
sV|CPD-15495|
p3288
I8
sV|CPD-4575|
p3289
I98
sV|CPD-15735|
p3290
I26
sV|CPD-13837|
p3291
I6
sV|CPD-10064|
p3292
I26
sV|CPD-12173|
p3293
I14
sV|CPD-12188|
p3294
I8
sV|CPD-8677|
p3295
I21
sV|CPD-12950|
p3296
I30
sV|CPD-237|
p3297
I30
sV|CPD0-930|
p3298
I18
sV|COUMARATE|
p3299
I147
sV|CPD-14841|
p3300
I4
sV|3-4-DIHYDROXYBENZOATE|
p3301
I86
sV|BR-|
p3302
I3
sV|CPD-12028|
p3303
I32
sV|CPD-14319|
p3304
I27
sV|CPD-14634|
p3305
I18
sV|CPD-15280|
p3306
I16
sV|CPD-10039|
p3307
I65
sV|CPD-14177|
p3308
I5
sV|E-|
p3309
I1
sV|CPD-6643|
p3310
I5
sV|CPD-9947|
p3311
I8
sV|CPD-347|
p3312
I9
sV|CPD-12595|
p3313
I2
sV|CPD-343|
p3314
I6
sV|CPD-12373|
p3315
I10
sV|CPD-10151|
p3316
I74
sV|CPD-9004|
p3317
I12
sV|METHYLARSONITE|
p3318
I12
sV|HEXANOATE|
p3319
I10
sV|Cytochromes-C554-Red|
p3320
I4
sV|CPD0-2298|
p3321
I6
sV|CPD-12541|
p3322
I1
sV|CPD-6181|
p3323
I2
sV|3-Ketoglutaryl-ACP-methyl-ester|
p3324
I20
sV|CPD-7641|
p3325
I32
sV|OXALYL-COA|
p3326
I21
sV|CPD-637|
p3327
I28
sV|SELENOHOMOCYSTEINE|
p3328
I8
sV|CPD-11495|
p3329
I8
sV|CPD-575|
p3330
I21
sV|4Fe-4S+1|
p3331
I13
sV|O-PHOSPHO-L-HOMOSERINE|
p3332
I16
sV|O-SINAPOYLGLUCARATE|
p3333
I4
sV|CPD-13050|
p3334
I9
sV|CPD-7199|
p3335
I10
sV|CPD-14734|
p3336
I6
sV|SALUTARIDINOL|
p3337
I24
sV|10-BETA-HYDROXYTAXA-42011-DIEN-5-ALPH|
p3338
I36
sV|2-AMINO-3-OXO-4-PHOSPHONOOXYBUTYRATE|
p3339
I14
sV|2R-HYDROXY-FATTY-ACIDS|
p3340
I3
sV|CPD-16180|
p3341
I12
sV|CPD-7073|
p3342
I9
sV|CPD-13368|
p3343
I20
sV|CPD-7710|
p3344
I36
sV|CPD0-2480|
p3345
I14
sV|CPD-11533|
p3346
I20
sV|2-OXOBUTANOATE|
p3347
I93
sV|Jasmonoyl-Phenylalanines|
p3348
I4
sV|CPD-30|
p3349
I6
sV|SIROHYDROCHLORIN|
p3350
I35
sV|CPD-6501|
p3351
I3
sV|Glucose|
p3352
I10
sV|CPD-11779|
p3353
I5
sV|CPD-1102|
p3354
I26
sV|CPD-252|
p3355
I14
sV|CPD-9527|
p3356
I7
sV|BIS-GERANYLGERANYLGLYCEROL-PHOSPHATE|
p3357
I20
sV|CPD-15265|
p3358
I12
sV|CPD-12614|
p3359
I16
sV|N-ISOPROPYLAMMELIDE|
p3360
I4
sV|CPD-16|
p3361
I22
sV|CPDQT-4|
p3362
I17
sV|R-3-hydroxydodecanoyl-ACPs|
p3363
I116
sV|3-oxo-C87-trans-keto-mycolate-pks13|
p3364
I362
sV|CPD-15967|
p3365
I18
sV|CPD-13956|
p3366
I21
sV|HCN|
p3367
I26
sV|CPD-12781|
p3368
I27
sV|Charged-THR-tRNAs|
p3369
I19
sV|CPD-16803|
p3370
I2
sV|CPD-9650|
p3371
I1
sV|3-MERCAPTO-PYRUVATE|
p3372
I4
sV|CPD-14005|
p3373
I24
sV|QUERCETIN-34-BISSULFATE|
p3374
I18
sV|CPD-16992|
p3375
I11
sV|CPD-10812|
p3376
I18
sV|CPD-8714|
p3377
I10
sV|CPD-12226|
p3378
I6
sV|GAMMA-PENTACHLOROCYCLOHEXANE|
p3379
I20
sV|Adenylated-ThiS-Proteins|
p3380
I24
sV|CPD-14485|
p3381
I18
sV|CPD-389|
p3382
I12
sV|ITACONATE|
p3383
I9
sV|CPD-4612|
p3384
I6
sV|CPD-8722|
p3385
I12
sV|CPD-12988|
p3386
I10
sV|ALPHA-N-ACETYLNEURAMINYL-23-BETA-ETCETER|
p3387
I9
sV|CPD-14510|
p3388
I4
sV|CPD-1901|
p3389
I4
sV|Charged-GLY-tRNAs|
p3390
I34
sV|CPDQT-427|
p3391
I13
sV|HYDROXYMETHYLBILANE|
p3392
I16
sV|cis-cis-D21-39-C58-2-ACPs|
p3393
I362
sV|CPD-11831|
p3394
I3
sV|CPD-8239|
p3395
I2
sV|CPD-8246|
p3396
I22
sV|CPD-3628|
p3397
I10
sV|Very-Long-Chain-Alcohols|
p3398
I10
sV|STRICTOSIDINE-AGLYCONE|
p3399
I34
sV|Carboxyadenylated-MPT-synthases|
p3400
I12
sV|tRNA-PreQ0|
p3401
I2
sV|Formyl-methanofurans|
p3402
I20
sV|CPD-16558|
p3403
I8
sV|SoxZY-L-Cysteine|
p3404
I10
sV|cis-cis-D13-31-C50-2-ACPs|
p3405
I362
sV|CPD-9710|
p3406
I3
sV|D-LACTATE|
p3407
I90
sV|CPD-15409|
p3408
I4
sV|6E8Z11Z14Z-5S-5-HYDROPEROXYCOSA-6|
p3409
I10
sV|CPD-16418|
p3410
I3
sV|COUMARYL-ALCOHOL|
p3411
I18
sV|MET-tRNAs|
p3412
I19
sV|GLUTARYL-COA|
p3413
I77
sV|VICIANOSE|
p3414
I7
sV|CPD-10823|
p3415
I12
sV|3-OXO-DELTA4-CHOLYL-COA|
p3416
I14
sV|CPD-12404|
p3417
I16
sV|CPD-925|
p3418
I6
sV|CPD-14245|
p3419
I8
sV|Sulfurated-Sulfur-Acceptors|
p3420
I20
sV|CPDQT-26|
p3421
I11
sV|CPD-123|
p3422
I30
sV|4-OH-4-ACETYL-2-OXOGLUTARATE|
p3423
I38
sV|CPD-8849|
p3424
I2
sV|CPD-14210|
p3425
I22
sV|CPD-9306|
p3426
I4
sV|CPD-12971|
p3427
I18
sV|CPD-13097|
p3428
I8
sV|CPD-3187|
p3429
I30
sV|cis-delta13-3-oxo-lacceroyl-ACPs|
p3430
I362
sV|cis-cis-19-31-dicyclopropyl-C52-ACPs|
p3431
I362
sV|GTP|
p3432
I200
sV|CPD-14862|
p3433
I39
sV|CPD-7608|
p3434
I14
sV|D-1-GUANIDINO-3-AMINO-13-DIDEOXY-SCYLLO|
p3435
I36
sV|PENICILLIN-N|
p3436
I4
sV|Charged-ILE-tRNAs|
p3437
I19
sV|CPD-16003|
p3438
I2
sV|PHE-tRNAs|
p3439
I19
sV|CPD-11715|
p3440
I8
sV|CIS-3-PHENYLCYCLOHEXA-35-DIENE-12-DIOL|
p3441
I8
sV|CPD-15676|
p3442
I22
sV|CPD-16907|
p3443
I12
sV|CPD-7090|
p3444
I4
sV|CPD-3502|
p3445
I6
sV|CPD-17011|
p3446
I22
sV|Beta-keto-Tyr-S-NovH|
p3447
I8
sV|UDP-OHMYR-ACETYLGLUCOSAMINE|
p3448
I10
sV|CPD-6991|
p3449
I14
sV|CPD1G-774|
p3450
I362
sV|CPD-1003|
p3451
I4
sV|D-Glucopyranuronate|
p3452
I33
sV|CPD-17080|
p3453
I10
sV|4-CARBOXYBENZYL-ALCOHOL|
p3454
I8
sV|Citrate-Lyase-Citryl-Form|
p3455
I2
sV|CPD-10618|
p3456
I6
sV|CPD-8166|
p3457
I54
sV|CPD-12655|
p3458
I15
sV|CPD-688|
p3459
I24
sV|CPD-12680|
p3460
I28
sV|CPD-211|
p3461
I2
sV|5-PHOSPHO-RIBOSYL-GLYCINEAMIDE|
p3462
I29
sV|Methylated-MtqC-Proteins|
p3463
I2
sV|D-Gal-NAc--Glycoproteins|
p3464
I12
sV|CPD-10207|
p3465
I24
sV|CPD4FS-1|
p3466
I8
sV|tRNAs|
p3467
I31
sV|COUMARALDEHYDE|
p3468
I28
sV|CPD-10347|
p3469
I10
sV|CPD-10586|
p3470
I56
sV|CPD-12677|
p3471
I28
sV|CPD-622|
p3472
I18
sV|Chondroitin-GalNAc-6S|
p3473
I4
sV|CPD-467|
p3474
I22
sV|CPD-4944|
p3475
I11
sV|5-UREIDO-4-IMIDAZOLE_CARBOXYLATE|
p3476
I78
sV|CPD-14910|
p3477
I27
sV|CPD-11919|
p3478
I5
sV|MtbC-Proteins|
p3479
I2
sV|trans-delta2-arachidoyl-ACPs|
p3480
I362
sV|CPD-14499|
p3481
I6
sV|4-OXOGLUTARAMATE|
p3482
I14
sV|CPD-11763|
p3483
I6
sV|2-DEHYDROPANTOYL-LACTONE|
p3484
I2
sV|tRNAPhe-Containing-N1-Methylguanine-37|
p3485
I26
sV|Guanine26-in-tRNA|
p3486
I14
sV|CPD-12760|
p3487
I6
sV|CPD-9750|
p3488
I45
sV|CPD-9056|
p3489
I6
sV|CPD-17057|
p3490
I8
sV|CPD-8082|
p3491
I54
sV|ALPHA-CYCLOPIAZONATE|
p3492
I3
sV|CPD-11887|
p3493
I6
sV|CPD-7859|
p3494
I7
sV|CPD-663|
p3495
I2
sV|16-HYDROXYTABERSONINE|
p3496
I14
sV|FUCULOSE-1P|
p3497
I10
sV|CPD-10329|
p3498
I6
sV|CPD-13323|
p3499
I11
sV|CPD-12207|
p3500
I14
sV|CPD-8762|
p3501
I5
sV|cis-cis-D11-23-C42-2-ACPs|
p3502
I362
sV|CPD-10209|
p3503
I12
sV|Trans-3-enoyl-CoAs|
p3504
I18
sV|CPD-558|
p3505
I18
sV|Odd-Straight-Chain-234-Sat-FA|
p3506
I10
sV|CPD-14419|
p3507
I28
sV|DsrC-persulfides|
p3508
I16
sV|L-ARGININO-SUCCINATE|
p3509
I68
sV|CPD-8853|
p3510
I4
sV|CPD-12334|
p3511
I6
sV|CPD-6442|
p3512
I3
sV|CPD-11869|
p3513
I7
sV|CPD-13431|
p3514
I1
sV|CPD-9930|
p3515
I9
sV|CPD-4824|
p3516
I18
sV|CPD-12303|
p3517
I18
sV|2-DEHYDROPANTOATE|
p3518
I12
sV|1-5-L-Arabinooligosaccharides|
p3519
I2
sV|CPD-4141|
p3520
I102
sV|L-Fucopyranoses|
p3521
I5
sV|CPD-9735|
p3522
I39
sV|CARBOXYPHENYLAMINO-DEOXYRIBULOSE-P|
p3523
I10
sV|2-TRANS6-TRANS-FARNESAL|
p3524
I24
sV|GLC|
p3525
I574
sV|SULFOQUINOVOSYLDIACYLGLYCEROL|
p3526
I1
sV|CPD-14259|
p3527
I4
sV|CPD-15172|
p3528
I1
sV|TRANS-3-METHYL-GLUTACONYL-COA|
p3529
I10
sV|kappa-Carrageenan|
p3530
I4
sV|CPD-6948|
p3531
I127
sV|CPD-12365|
p3532
I3
sV|Thyroglobulin-triiodothyronines|
p3533
I10
sV|CPD-16777|
p3534
I9
sV|CPD-418|
p3535
I22
sV|CPD-8697|
p3536
I10
sV|BUTEIN|
p3537
I12
sV|CPD-14553|
p3538
I227
sV|N-ACETYLNEURAMINATE|
p3539
I2
sV|CPD-15497|
p3540
I22
sV|CPD-10271|
p3541
I12
sV|CPD-10224|
p3542
I10
sV|CPD-12838|
p3543
I3
sV|CPD-8675|
p3544
I3
sV|4-TOLUENESULFONATE|
p3545
I3
sV|CPD-10640|
p3546
I6
sV|CPD-4577|
p3547
I98
sV|CPD-293|
p3548
I6
sV|CPD-9321|
p3549
I8
sV|CPD-13831|
p3550
I10
sV|CPD-14062|
p3551
I14
sV|CPD-9338|
p3552
I2
sV|CPD-12952|
p3553
I30
sV|CPD-7234|
p3554
I4
sV|CPD-14981|
p3555
I12
sV|CPD-14843|
p3556
I2
sV|CPD-16866|
p3557
I4
sV|CPD-7299|
p3558
I4
sV|CPD-10529|
p3559
I39
sV|HIS-tRNAs|
p3560
I19
sV|345-TRIHYDROXY-37-DIMETHOXYFLAVONE|
p3561
I119
sV|GlcNAc-GlcA-Gal-Gal-Xyl-Protein|
p3562
I11
sV|S-N-METHYLCANADINE|
p3563
I22
sV|2-OXINDOLE-3-ACETYL-ASP|
p3564
I25
sV|5Z13E-15S-9-ALPHA15-DIHYDROXY-11-O|
p3565
I4
sV|CPD-1803|
p3566
I6
sV|1-METHOXY-3-INDOLYLMETHYL-GLUCOSINOLATE|
p3567
I13
sV|CPD0-1551|
p3568
I3
sV|CPD-13692|
p3569
I64
sV|CPD-10359|
p3570
I4
sV|Cerotoyl-ACPs|
p3571
I369
sV|CPD-4442|
p3572
I8
sV|CPD-12938|
p3573
I30
sV|BIOTIN|
p3574
I7
sV|CPD-7647|
p3575
I32
sV|Inositolphosphoryl-Ceramides|
p3576
I12
sV|D-GLUCARATE|
p3577
I12
sV|CPD-15602|
p3578
I4
sV|CPD-15653|
p3579
I22
sV|C55-PP-GLCNAC-MANNACA-FUC4NAC|
p3580
I4
sV|CPD-318|
p3581
I29
sV|CPD-635|
p3582
I4
sV|CPD-6484|
p3583
I3
sV|CPD-12040|
p3584
I32
sV|CPD66-69|
p3585
I9
sV|CPD-285|
p3586
I30
sV|CPD-12865|
p3587
I68
sV|CPD-11497|
p3588
I24
sV|CPD-13056|
p3589
I4
sV|cis-cis-D13-31-3-oxo-C50-2-ACPs|
p3590
I362
sV|Dodecanoyl-ACPs|
p3591
I181
sV|CPD-14741|
p3592
I10
sV|CPD-674|
p3593
I64
sV|Diacylglycerolhomoserines|
p3594
I2
sV|CPD-14820|
p3595
I28
sV|CPD-8134|
p3596
I68
sV|CPD-85|
p3597
I12
sV|CPD-9151|
p3598
I21
sV|CPD-13625|
p3599
I38
sV|MORPHINE|
p3600
I24
sV|CPD-7712|
p3601
I24
sV|3-DEOXY-D-ARABINO-HEPTULOSONATE-7-P|
p3602
I2
sV|CPD-8947|
p3603
I15
sV|Thiocarboxylated-CysO|
p3604
I6
sV|DEOXYCYTIDINE|
p3605
I10
sV|Long-Chain-Aldehydes|
p3606
I14
sV|OCTAPRENYL-DIPHOSPHATE|
p3607
I15
sV|13-HYDROPEROXYOCTADECA-911-DIENOATE|
p3608
I18
sV|3-oxo-decanoyl-ACPs|
p3609
I121
sV|THI5-L-histidine|
p3610
I8
sV|CPD-15263|
p3611
I18
sV|Neoagaro-oligosaccharides|
p3612
I7
sV|INDOLE-3-GLYCOLATE|
p3613
I36
sV|CPD-12612|
p3614
I16
sV|5-DEHYDROGLUCONATE|
p3615
I17
sV|CPD-12783|
p3616
I18
sV|CPD-11740|
p3617
I36
sV|NN-DIACETYLCHITOBIOSYLDIPHOSPHODOLICHO|
p3618
I28
sV|CPD-13954|
p3619
I10
sV|CPD0-2339|
p3620
I10
sV|CPD-332|
p3621
I14
sV|CPD-613|
p3622
I14
sV|CPD-9097|
p3623
I16
sV|CPD0-2362|
p3624
I16
sV|CPD-16801|
p3625
I1
sV|NA+|
p3626
I6
sV|CPD-7140|
p3627
I15
sV|CPD-13578|
p3628
I2
sV|CPD-6421|
p3629
I3
sV|CPD-16614|
p3630
I6
sV|CPD-7222|
p3631
I3
sV|INOSINE|
p3632
I42
sV|LYS|
p3633
I152
sV|CPD-12271|
p3634
I2
sV|CPD-12224|
p3635
I6
sV|CDPDIACYLGLYCEROL|
p3636
I64
sV|N-METHYL-HISTAMINE|
p3637
I2
sV|CPD-4614|
p3638
I9
sV|Reduced-adrenal-ferredoxins|
p3639
I61
sV|TRIMETHYLSULFONIUM|
p3640
I11
sV|3-hydroxy-cis-D9-hexaecenoyl-ACPs|
p3641
I16
sV|ASP-tRNAs|
p3642
I19
sV|CPD-14899|
p3643
I9
sV|DIACYLGLYCEROL|
p3644
I121
sV|CPD-7847|
p3645
I18
sV|CPDQT-421|
p3646
I45
sV|CPD-1881|
p3647
I70
sV|CPD-10037|
p3648
I41
sV|CPD-11873|
p3649
I14
sV|VITEXIN-2-O-B-L-RHAMNOSIDE|
p3650
I6
sV|SELENOMETHIONINE|
p3651
I9
sV|CPD-7556|
p3652
I16
sV|CPD-16723|
p3653
I28
sV|CPD-16827|
p3654
I26
sV|Holo-malonate-decarboxylases|
p3655
I6
sV|CPD-13220|
p3656
I9
sV|S-CHEILANTHIFOLINE|
p3657
I32
sV|CPD-8656|
p3658
I15
sV|CPD-11419|
p3659
I18
sV|CPD-923|
p3660
I6
sV|CPD-10137|
p3661
I36
sV|CPD-121|
p3662
I4
sV|NICOTINE|
p3663
I171
sV|CPD-14212|
p3664
I11
sV|CPD-4|
p3665
I12
sV|CPD-12497|
p3666
I8
sV|CPD-14706|
p3667
I6
sV|CPD-13095|
p3668
I8
sV|CPD-9300|
p3669
I4
sV|CPD-14860|
p3670
I39
sV|THZ|
p3671
I15
sV|CPD-6141|
p3672
I4
sV|CPD-7203|
p3673
I10
sV|CPD-366|
p3674
I12
sV|Mono-Rhamnolipids|
p3675
I4
sV|CPD66-26|
p3676
I6
sV|Alcohols|
p3677
I3
sV|UMP|
p3678
I137
sV|cis-delta17-3-oxo-C36-ACPs|
p3679
I362
sV|CPD-16001|
p3680
I4
sV|CPD-16905|
p3681
I12
sV|CPD-9391|
p3682
I4
sV|CPD-10419|
p3683
I6
sV|CPD-9366|
p3684
I2
sV|4-Amino-butanoyl-BtrI-Acps|
p3685
I12
sV|SECOLOGANIN-CPD|
p3686
I43
sV|CYS-GLY|
p3687
I23
sV|CPD-17017|
p3688
I14
sV|3-CYANOPYRIDINE|
p3689
I4
sV|CPD-16502|
p3690
I6
sV|CPD-2182|
p3691
I80
sV|CPD-14352|
p3692
I28
sV|ACRYLAMIDE|
p3693
I2
sV|METHYL-MTAC|
p3694
I2
sV|CPD-15373|
p3695
I6
sV|CPD-14138|
p3696
I18
sV|2-AMINO-4-CARBOXYPYRIMIDINE|
p3697
I4
sV|VESTITONE|
p3698
I6
sV|GDP-4-DEHYDRO-6-DEOXY-D-MANNOSE|
p3699
I16
sV|CPD-2222|
p3700
I12
sV|CPD-8164|
p3701
I27
sV|CPD-12129|
p3702
I1
sV|CPD-12682|
p3703
I28
sV|CPD-592|
p3704
I22
sV|N-acetyl-D-galactosamine|
p3705
I4
sV|TETRAHYD-CPD|
p3706
I15
sV|CPD-10205|
p3707
I24
sV|CPD-10621|
p3708
I2
sV|CPD-12671|
p3709
I28
sV|CPD-10345|
p3710
I5
sV|ADENYLOSUCC|
p3711
I6
sV|CPD-14874|
p3712
I16
sV|CPD-12483|
p3713
I3
sV|OH|
p3714
I16
sV|CPD-102|
p3715
I8
sV|CPD-15947|
p3716
I16
sV|Sphingoid-1-phosphates|
p3717
I4
sV|carbo-me-ur-34-tRNA|
p3718
I14
sV|CPD-7167|
p3719
I36
sV|SINAPOYL-COA|
p3720
I49
sV|GLYCOLALDEHYDE|
p3721
I71
sV|CPD-11910|
p3722
I14
sV|CPD-12201|
p3723
I14
sV|CPD-11669|
p3724
I1
sV|Lignoceroyl-ACPs|
p3725
I369
sV|APIGENIN|
p3726
I51
sV|CPD-14460|
p3727
I12
sV|3-ENOLPYRUVYL-SHIKIMATE-5P|
p3728
I10
sV|CPD-13378|
p3729
I10
sV|XYLOSE|
p3730
I5
sV|CPD1G-772|
p3731
I362
sV|CPD-1001|
p3732
I2
sV|CPD-16503|
p3733
I6
sV|CPD-15555|
p3734
I12
sV|CPD-8851|
p3735
I4
sV|CPD-4822|
p3736
I36
sV|CPD-7105|
p3737
I6
sV|CPD-13433|
p3738
I10
sV|AMINO-OH-HYDROXYMETHYL-DIHYDROPTERIDINE|
p3739
I54
sV|CPD-9936|
p3740
I1
sV|CPD-6979|
p3741
I12
sV|CPD-1241|
p3742
I6
sV|CPD-4143|
p3743
I85
sV|CPD-7109|
p3744
I6
sV|CPD-17045|
p3745
I16
sV|CPDQT-350|
p3746
I16
sV|AGMATHINE|
p3747
I25
sV|CPD-6997|
p3748
I4
sV|CPD-9737|
p3749
I26
sV|Trans-D2-decenoyl-ACPs|
p3750
I126
sV|CPD-13644|
p3751
I5
sV|CPD-15076|
p3752
I24
sV|CPD-11510|
p3753
I1
sV|CPD-9123|
p3754
I2
sV|CPD-12363|
p3755
I6
sV|CPD-8691|
p3756
I12
sV|SCOPOLIN|
p3757
I12
sV|CPD-16848|
p3758
I12
sV|CPD-465|
p3759
I56
sV|CPD-8077|
p3760
I81
sV|CPD-8913|
p3761
I13
sV|CPD-14838|
p3762
I8
sV|MI-HEXAKISPHOSPHATE|
p3763
I89
sV|DERMATAN-L-IDURONATE|
p3764
I6
sV|PHOSPHORIBOSYL-FORMAMIDO-CARBOXAMIDE|
p3765
I28
sV|CPD-11690|
p3766
I3
sV|TRIMENTHLAMINE-N-O|
p3767
I6
sV|CPD-13833|
p3768
I10
sV|CPD-10068|
p3769
I26
sV|S-CITRAMALATE|
p3770
I6
sV|MESO-DIAMINOPIMELATE|
p3771
I66
sV|INOSITOL-1456-TETRAKISPHOSPHATE|
p3772
I14
sV|CPD-9327|
p3773
I10
sV|CPD-4405|
p3774
I4
sV|KDO2-PALMITOLEOYL-LIPID-IVA|
p3775
I12
sV|CPD-12184|
p3776
I38
sV|CPD66-65|
p3777
I8
sV|DEHYDROQUINATE|
p3778
I20
sV|CPD-12450|
p3779
I6
sV|ADENINE|
p3780
I98
sV|CPD-14983|
p3781
I7
sV|N-5-PHOSPHORIBOSYL-ANTHRANILATE|
p3782
I10
sV|BUTYRYL-P|
p3783
I12
sV|DIHYDROXY-ACETONE-PHOSPHATE|
p3784
I423
sV|Cis-Prenyl-tRNAs|
p3785
I8
sV|CPD-10527|
p3786
I156
sV|CPD-9858|
p3787
I28
sV|Reduced-Factor-F420|
p3788
I25
sV|All-trans-retinal-RALBPs|
p3789
I20
sV|CPD-10837|
p3790
I5
sV|Xyloglucan|
p3791
I7
sV|Fatty-acid-ethyl-esters|
p3792
I3
sV|PqqA-Cleaved-C-terminus|
p3793
I6
sV|CPD-15651|
p3794
I22
sV|PHYTOL|
p3795
I13
sV|Polysulfides|
p3796
I3
sV|CPD-1022|
p3797
I10
sV|CPD-633|
p3798
I39
sV|CPD-9000|
p3799
I6
sV|CPD-7645|
p3800
I32
sV|CPD-9472|
p3801
I2
sV|2-N-linked-Glycan|
p3802
I12
sV|CPD-12867|
p3803
I68
sV|CPD-14976|
p3804
I21
sV|CPD-14155|
p3805
I42
sV|CPD-283|
p3806
I16
sV|CPD-12159|
p3807
I6
sV|Pro-tRNA-2-O-MeCytidine4|
p3808
I14
sV|Charged-GLT-tRNAs|
p3809
I29
sV|CPD-6886|
p3810
I4
sV|CPD-13023|
p3811
I22
sV|ENTEROBACTIN|
p3812
I1
sV|CPD-10226|
p3813
I12
sV|CPD-15325|
p3814
I10
sV|cis-delta3-behenoyl-ACPs|
p3815
I362
sV|CPD-7714|
p3816
I33
sV|CPD-12088|
p3817
I18
sV|CPD-87|
p3818
I14
sV|CPD-11959|
p3819
I8
sV|HYDROXYNAPHTHOQUINONE|
p3820
I1
sV|CPD-9664|
p3821
I16
sV|CPD-14817|
p3822
I7
sV|CPD-15964|
p3823
I18
sV|CPD-15261|
p3824
I3
sV|ALPHA-D-MANNOSYLCHITOBIO|
p3825
I28
sV|CPDQT-405|
p3826
I16
sV|D-ALANINE|
p3827
I101
sV|FeS-Cluster-Co-Chaperones|
p3828
I18
sV|CPD-568|
p3829
I8
sV|CPD-8158|
p3830
I42
sV|CPD-12610|
p3831
I2
sV|CPD-12645|
p3832
I2
sV|CPD-9175|
p3833
I8
sV|CPD-9523|
p3834
I14
sV|CPD-12910|
p3835
I68
sV|CPD-782|
p3836
I36
sV|CPD-15596|
p3837
I4
sV|CPD-12785|
p3838
I18
sV|3-URACIL-1-YL-L-SERINE|
p3839
I1
sV|CPD-330|
p3840
I30
sV|CPD-982|
p3841
I8
sV|CPD-13952|
p3842
I28
sV|CPD-648|
p3843
I12
sV|CPD-11984|
p3844
I26
sV|CPD-7142|
p3845
I5
sV|5-2-me-oxy-2-oxo-et-ur-34-tRNA|
p3846
I14
sV|CPD-16423|
p3847
I14
sV|2-3-DIHYDROXYBENZOATE|
p3848
I28
sV|CPD-11442|
p3849
I1
sV|CysO-S-Cysteine|
p3850
I6
sV|ADP-D-GLYCERO-D-MANNO-HEPTOSE|
p3851
I8
sV|L-1-GLYCERO-PHOSPHORYLCHOLINE|
p3852
I5
sV|CPD-13605|
p3853
I2
sV|CPD-12222|
p3854
I12
sV|CPD-8130|
p3855
I34
sV|DIPHTHAMIDE|
p3856
I5
sV|CPD-8098|
p3857
I8
sV|CPD-12727|
p3858
I6
sV|CPD-9676|
p3859
I6
sV|CPD-4616|
p3860
I8
sV|PHYTOSPINGOSINE|
p3861
I56
sV|CPDQT-423|
p3862
I13
sV|CPD-9861|
p3863
I28
sV|L-PANTOATE|
p3864
I12
sV|CPD-9494|
p3865
I4
sV|PHYTOALEXIN-CMPD|
p3866
I8
sV|Beta-hydroxydecanoyl-ACPs|
p3867
I123
sV|L-PIPECOLATE|
p3868
I40
sV|CPDQT-331|
p3869
I18
sV|Trans-D3-cis-D7-tetradecenoyl-ACPs|
p3870
I16
sV|CPD-11871|
p3871
I21
sV|CPD-7554|
p3872
I16
sV|CPD-11799|
p3873
I3
sV|CPD-15476|
p3874
I12
sV|14-DICHLOROBENZENE|
p3875
I6
sV|CPD-394|
p3876
I4
sV|RIBOSE-15-BISPHOSPHATE|
p3877
I16
sV|17-ALPHA-HYDROXYPROGESTERONE|
p3878
I4
sV|cis-delta7-cerotoyl-ACPs|
p3879
I362
sV|CPD-16721|
p3880
I42
sV|CPD-16829|
p3881
I12
sV|CPD-13222|
p3882
I9
sV|VITAMIN_D3|
p3883
I6
sV|DIHYDROMACARPINE|
p3884
I32
sV|UDP-D-GALACTURONATE|
p3885
I19
sV|cis-delta9-3-oxo-montanoyl-ACPs|
p3886
I362
sV|Jasmonoyl-Isoleucines|
p3887
I7
sV|CPD-7172|
p3888
I10
sV|OCTANOYL-ACP|
p3889
I13
sV|CPD-14241|
p3890
I8
sV|CPD-9749|
p3891
I45
sV|CPDQT-27|
p3892
I43
sV|Nucleoside-Triphosphates|
p3893
I20
sV|CPD-14704|
p3894
I6
sV|CPD-681|
p3895
I6
sV|CPD-3183|
p3896
I15
sV|CPD-13188|
p3897
I1
sV|trans-3-cis-5-dienoyl-CoA|
p3898
I8
sV|CPD-16689|
p3899
I12
sV|CPD-4563|
p3900
I12
sV|CPD-10054|
p3901
I19
sV|INDOLE-3-ACETYL-BETA-4-D-GLUCOSE|
p3902
I12
sV|CPD-15091|
p3903
I10
sV|L-Cysteine-Desulfurase-persulfide|
p3904
I36
sV|CPD-7046|
p3905
I15
sV|CPD-11590|
p3906
I4
sV|L-ALPHA-ALANINE|
p3907
I324
sV|CPD-10176|
p3908
I4
sV|L-ARABITOL|
p3909
I4
sV|CPD-17015|
p3910
I14
sV|CPD-11675|
p3911
I18
sV|CPD-14354|
p3912
I28
sV|CPD-10600|
p3913
I18
sV|Rifamycin-Undecaketide-Acps|
p3914
I24
sV|CPD-13108|
p3915
I3
sV|2-FUROATE|
p3916
I32
sV|Galactosides|
p3917
I8
sV|CPD-12647|
p3918
I34
sV|CPD-12746|
p3919
I3
sV|D-Galactosyl-12-diacyl-glycerols|
p3920
I12
sV|CPD-15998|
p3921
I10
sV|CPD-5621|
p3922
I14
sV|trans-D2-cis-cis-D21-39-C58-3-ACPs|
p3923
I362
sV|CPD-17084|
p3924
I4
sV|CPD-3482|
p3925
I4
sV|CPD-69|
p3926
I2
sV|CPD-12306|
p3927
I18
sV|CPD-11399|
p3928
I4
sV|tRNAPhe-wybutosine|
p3929
I2
sV|CPD-13804|
p3930
I6
sV|CPD-13006|
p3931
I12
sV|CPD-12684|
p3932
I28
sV|3-HEXAPRENYL-45-DIHYDROXYBENZOATE|
p3933
I52
sV|16-EPIVELLOSIMINE|
p3934
I51
sV|CPD-16536|
p3935
I24
sV|Chondroitin-D-glucuronates|
p3936
I7
sV|CPD-13093|
p3937
I10
sV|Cis-delta-3-decenoyl-ACPs|
p3938
I10
sV|CPD1F-128|
p3939
I29
sV|CPD-12673|
p3940
I28
sV|CPD-15380|
p3941
I16
sV|CPD-15945|
p3942
I16
sV|CPD0-2472|
p3943
I6
sV|CPD-15932|
p3944
I16
sV|CPD-9517|
p3945
I10
sV|CPD-17085|
p3946
I2
sV|--beta-santalene|
p3947
I4
sV|CPD-14262|
p3948
I16
sV|CPD-11529|
p3949
I36
sV|CPD-7030|
p3950
I4
sV|CPD-9973|
p3951
I8
sV|CPD-7993|
p3952
I4
sV|CPD-7165|
p3953
I20
sV|CPD-667|
p3954
I8
sV|3-BETA-HYDROXY-5-ALPHA-PREGNANE-20-ONE|
p3955
I3
sV|Xyloglucans-Galactose-23|
p3956
I10
sV|CPD-9539|
p3957
I28
sV|DIHYDROKAEMPFEROL-CMPD|
p3958
I56
sV|CPD-14105|
p3959
I18
sV|CPD-12203|
p3960
I14
sV|CPD-14466|
p3961
I10
sV|cis-cis-D11-23-3-oxo-C42-2-ACPs|
p3962
I362
sV|O-Acyl-L-Carnitines|
p3963
I1
sV|SOLANESYL-PYROPHOSPHATE|
p3964
I20
sV|INDOLE-3-KETOL|
p3965
I24
sV|CPD-13908|
p3966
I8
sV|9FLUORENOL|
p3967
I13
sV|CPD-6962|
p3968
I8
sV|CPD-10683|
p3969
I2
sV|PigG-L-proline|
p3970
I22
sV|CPD-11852|
p3971
I1
sV|7-O-BETA-D-APIOFURANOSYL-12-BETA-D-GLU|
p3972
I4
sV|FAD|
p3973
I223
sV|CPD-10857|
p3974
I10
sV|CPD-10778|
p3975
I5
sV|CPD-12269|
p3976
I1
sV|2-TRANS6-TRANS-FARNESOL|
p3977
I27
sV|CPD-11512|
p3978
I2
sV|DIPHTINE|
p3979
I10
sV|CPD-336|
p3980
I30
sV|CPD-9125|
p3981
I4
sV|CPD-8757|
p3982
I2
sV|Oxidized-Polyvinyl-Alcohol|
p3983
I3
sV|CPD-7968|
p3984
I16
sV|CPD-12990|
p3985
I10
sV|CPD-9854|
p3986
I14
sV|CPD-14528|
p3987
I2
sV|CPD-8079|
p3988
I54
sV|CPD-8911|
p3989
I14
sV|CPD-12847|
p3990
I1
sV|O-SUCCINYL-L-HOMOSERINE|
p3991
I8
sV|CPD-12019|
p3992
I9
sV|CPD-8679|
p3993
I3
sV|CPD-8203|
p3994
I2
sV|CPD-8606|
p3995
I38
sV|PANTOTHENATE|
p3996
I14
sV|CPD-12452|
p3997
I12
sV|CPD-14767|
p3998
I10
sV|CPD-4407|
p3999
I4
sV|CPD-195|
p4000
I13
sV|L-ASPARTATE|
p4001
I279
sV|INDOLE-3-GLYCEROL-P|
p4002
I20
sV|3-HEXAPRENYL-4-HYDROXY-5-METHOXYBENZOATE|
p4003
I66
sV|CPD-16766|
p4004
I4
sV|CPD-14985|
p4005
I6
sV|CPD-15005|
p4006
I30
sV|CPD-10678|
p4007
I19
sV|CPD-3421|
p4008
I12
sV|UDP-N-ACETYL-GALACTOSAMINE|
p4009
I14
sV|CPD-12469|
p4010
I8
sV|CPD1F-134|
p4011
I72
sV|CPD-9875|
p4012
I6
sV|2-KETO-6-ACETAMIDOCAPROATE|
p4013
I10
sV|D-SORBITOL-6-P|
p4014
I9
sV|CPD-10623|
p4015
I2
sV|Methylmalonyl-CoA|
p4016
I9
sV|CPD-7607|
p4017
I2
sV|CPD-12033|
p4018
I8
sV|CPD-7630|
p4019
I5
sV|PALMITALDEHYDE|
p4020
I14
sV|CPD-14737|
p4021
I6
sV|P3I|
p4022
I42
sV|Fructofuranose|
p4023
I10
sV|CPD-14650|
p4024
I4
sV|CPD-11960|
p4025
I4
sV|CPD-5602|
p4026
I4
sV|CPD-12869|
p4027
I2
sV|GDP-L-GALACTOSE|
p4028
I21
sV|CPD-13021|
p4029
I33
sV|CPD-15323|
p4030
I10
sV|S-12-EPOXYPROPANE|
p4031
I12
sV|Oxo-glutarate-dehydro-suc-DH-lipoyl|
p4032
I4
sV|CPD-10220|
p4033
I4
sV|CPD-7088|
p4034
I7
sV|CPD-12242|
p4035
I4
sV|CPD-1097|
p4036
I8
sV|CPD-236|
p4037
I20
sV|CPD-81|
p4038
I3
sV|CPD-14815|
p4039
I14
sV|ERGOSTEROL|
p4040
I23
sV|Hederagenin-Monoglucosides|
p4041
I3
sV|NDP-26-dideoxy-D-threo-4-hexulose|
p4042
I30
sV|CPD-16458|
p4043
I12
sV|CPD-15966|
p4044
I18
sV|CPD-15236|
p4045
I8
sV|CPD-9950|
p4046
I21
sV|ANDROST4ENE|
p4047
I80
sV|CPD-10|
p4048
I10
sV|CPD-11744|
p4049
I36
sV|9FLUORENONE|
p4050
I12
sV|R-VICIANIN|
p4051
I1
sV|CPD-12912|
p4052
I68
sV|Brassinolide-Sulfates|
p4053
I5
sV|CPD-12787|
p4054
I18
sV|CPD-15218|
p4055
I2
sV|DMSO|
p4056
I8
sV|CPD-844|
p4057
I2
sV|CPD-349|
p4058
I30
sV|CPD-14128|
p4059
I54
sV|2-Acylglycero-Phosphocholines|
p4060
I24
sV|CPD-475|
p4061
I10
sV|CPD-8956|
p4062
I12
sV|Deoxyhypusine-Synthase-Lysine|
p4063
I8
sV|2-phospho-ligated-tRNA|
p4064
I8
sV|CPD-13792|
p4065
I58
sV|CPD-3402|
p4066
I10
sV|Pimeloyl-ACPs|
p4067
I22
sV|CPD-14928|
p4068
I6
sV|2-OXOBUT-3-ENANOATE|
p4069
I4
sV|CPD-16618|
p4070
I4
sV|12-DEHYDRORETICULINIUM|
p4071
I24
sV|CPD-14483|
p4072
I18
sV|CPD-1843|
p4073
I4
sV|CPD-14434|
p4074
I3
sV|LysW-Alpha-Aminoadipate-Semialdehyde|
p4075
I18
sV|CPD0-2340|
p4076
I10
sV|CPD-15532|
p4077
I40
sV|CPD-10283|
p4078
I30
sV|CPD-7384|
p4079
I5
sV|CPD-9042|
p4080
I28
sV|HOMO-I-CIT|
p4081
I64
sV|tRNA-Containing-N2-Methylguanine-10|
p4082
I14
sV|CPD-8096|
p4083
I8
sV|CPD-12725|
p4084
I7
sV|CPD-9863|
p4085
I22
sV|CPD-7843|
p4086
I4
sV|CPD-9700|
p4087
I13
sV|CPD-11671|
p4088
I18
sV|CPD-13621|
p4089
I18
sV|C86-trans-methoxy-mycolate-pks13|
p4090
I362
sV|CPD-16923|
p4091
I12
sV|PQQ|
p4092
I6
sV|PYRAZOLE|
p4093
I6
sV|CPD-16880|
p4094
I6
sV|cis-D21-39-OH-40-Me-C59-1-ACPs|
p4095
I543
sV|ISOVITEXIN-2-O-B-D-GLUCOSIDE|
p4096
I5
sV|MIPC|
p4097
I24
sV|CPD-11877|
p4098
I24
sV|CPD-9908|
p4099
I32
sV|6G-KESTOTETRAOSE|
p4100
I6
sV|CPD-15474|
p4101
I8
sV|CPD-15403|
p4102
I2
sV|FE+3|
p4103
I35
sV|CPD-16727|
p4104
I28
sV|MYCOTHIONE|
p4105
I8
sV|Pectin|
p4106
I7
sV|SUCC-S-ALD|
p4107
I196
sV|NDP-glucoses|
p4108
I8
sV|DICHLOROETHENE|
p4109
I6
sV|Ubiquitin-carrier-protein-E2-L-cysteine|
p4110
I18
sV|PECTATE|
p4111
I18
sV|CPD-12475|
p4112
I3
sV|CPD-9561|
p4113
I4
sV|CPD-14216|
p4114
I22
sV|PLASTOQUINONE|
p4115
I32
sV|General-Protein-Substrates|
p4116
I6
sV|1-ACYL-2-OLEOYL-SN-GLYCERO-3-PHOSPHOCHOL|
p4117
I1
sV|POLY-GLUCOSYLATED-GLYCOGENINS|
p4118
I9
sV|CHLOROPHYLL-B|
p4119
I10
sV|CPD-16742|
p4120
I6
sV|CPD-14702|
p4121
I4
sV|CPD-687|
p4122
I24
sV|CPD-8647|
p4123
I1
sV|cis-cis-D11-29-3-oxo-C48-2-ACPs|
p4124
I362
sV|CPD-7207|
p4125
I10
sV|CPD1G-1344|
p4126
I921
sV|CPD-864|
p4127
I14
sV|CPD-7016|
p4128
I10
sV|CPD-15721|
p4129
I48
sV|CPD-10052|
p4130
I13
sV|CPD-16569|
p4131
I1
sV|CPDQT-411|
p4132
I30
sV|2-NITROTOLUENE|
p4133
I2
sV|Linalools|
p4134
I12
sV|CPD-10664|
p4135
I1
sV|CPD-12580|
p4136
I14
sV|CPD-2186|
p4137
I40
sV|D-TAGATURONATE|
p4138
I22
sV|24-DICHLOROPHENOL|
p4139
I2
sV|CPD-377|
p4140
I36
sV|F-|
p4141
I5
sV|CPD-7367|
p4142
I24
sV|GAMMA-LINOLENOYL-COA|
p4143
I45
sV|CPD-6262|
p4144
I22
sV|CPD-14951|
p4145
I3
sV|CPD-3484|
p4146
I4
sV|CPD-8117|
p4147
I6
sV|AMINO-OXOBUT|
p4148
I12
sV|CPD-13806|
p4149
I10
sV|CPD-217|
p4150
I16
sV|BETA-L-ARABINOSE|
p4151
I1
sV|CPD-7682|
p4152
I62
sV|HG0|
p4153
I1
sV|CPD-10254|
p4154
I12
sV|CPD-10201|
p4155
I12
sV|CPD-9293|
p4156
I12
sV|CPD-12112|
p4157
I11
sV|TAURINE|
p4158
I63
sV|CPD-963|
p4159
I8
sV|CPD-13091|
p4160
I20
sV|CPD-11572|
p4161
I9
sV|5-BETA-CHOLESTANE-3-ALPHA7-ALPHA12-ALP|
p4162
I56
sV|D-GALACTARATE|
p4163
I6
sV|CPD-15382|
p4164
I28
sV|CPD-7032|
p4165
I8
sV|CPD-7063|
p4166
I14
sV|CPD-71|
p4167
I56
sV|3-oxo-stearoyl-ACPs|
p4168
I18
sV|BETA-ACETYLGLUCOSAMINIDE|
p4169
I9
sV|CPD1G-105|
p4170
I362
sV|CPD-11941|
p4171
I4
sV|2-OXO-5-METHYLTHIOPENTANOIC-ACID|
p4172
I22
sV|PHENYL-PYRUVATE|
p4173
I72
sV|--MENTHOL|
p4174
I11
sV|CPD-8935|
p4175
I5
sV|cis-cis-D7-25-3-hydroxyC44-2-ACPs|
p4176
I362
sV|CPD-15279|
p4177
I10
sV|CPD1F-140|
p4178
I27
sV|CPD-14464|
p4179
I10
sV|CPD-14322|
p4180
I9
sV|CPD-15377|
p4181
I3
sV|CPD-15630|
p4182
I24
sV|CPD-11738|
p4183
I36
sV|LIOTHYRONINE|
p4184
I122
sV|CPD-9445|
p4185
I6
sV|Oxidized-cytochromes-c551|
p4186
I3
sV|GUANINE|
p4187
I69
sV|CPD-12309|
p4188
I9
sV|Malonate-Decarboxylases-Acetyl-Form|
p4189
I13
sV|CPD-11409|
p4190
I14
sV|CPD-10681|
p4191
I5
sV|ILE-tRNAs|
p4192
I19
sV|CPD0-1189|
p4193
I10
sV|CPD-10855|
p4194
I10
sV|CPD-15015|
p4195
I8
sV|CPD-11974|
p4196
I8
sV|CPD-7591|
p4197
I12
sV|TOLUENE|
p4198
I19
sV|CPD-10808|
p4199
I18
sV|GEISSOSCHIZINE|
p4200
I34
sV|CPD-3161|
p4201
I36
sV|CPD-9410|
p4202
I28
sV|CPD-12336|
p4203
I3
sV|CPD-534|
p4204
I26
sV|5-PHOSPHORIBOSYL-N-FORMYLGLYCINEAMIDINE|
p4205
I28
sV|CPD-469|
p4206
I40
sV|3-HYDROXY-N6N6N6-TRIMETHYL-L-LYSINE|
p4207
I6
sV|CPD-4161|
p4208
I34
sV|CPD-4664|
p4209
I12
sV|5-HYDROXY-CTP|
p4210
I2
sV|CPD-8917|
p4211
I8
sV|CPD-4942|
p4212
I44
sV|ssRNAs|
p4213
I18
sV|CPD-8254|
p4214
I4
sV|6-LACTOYL-5678-TETRAHYDROPTERIN|
p4215
I6
sV|CPD-12845|
p4216
I24
sV|PqqA-Cleaved-N-terminus|
p4217
I6
sV|CPD-299|
p4218
I16
sV|CPD-658|
p4219
I4
sV|Methylated-MtsB-Proteins|
p4220
I6
sV|CPD-14093|
p4221
I4
sV|12346-PENTAKIS-O-GALLOYL-BETA-D-GLUC|
p4222
I24
sV|CPD-731|
p4223
I36
sV|CPD-764|
p4224
I1
sV|CPD-14987|
p4225
I6
sV|CPD1F-420|
p4226
I10
sV|CPD-142|
p4227
I10
sV|CPDQT-522|
p4228
I5
sV|CPD-15288|
p4229
I2
sV|CPD-593|
p4230
I2
sV|CPD-10031|
p4231
I13
sV|CPD-12389|
p4232
I22
sV|N-ACETYL-D-GLUCOSAMINE|
p4233
I16
sV|Charged-TYR-tRNAs|
p4234
I20
sV|PYRIDOXAMINE-5P|
p4235
I32
sV|CARBONYL-SULFIDE|
p4236
I6
sV|GLUCURONYL-ETCETERA-GALACTOSYLPROTEOGLYC|
p4237
I2
sV|PROCLAVAMINATE|
p4238
I14
sV|CPD-1777|
p4239
I2
sV|HYDROXYPROPANAL|
p4240
I18
sV|CPD1G-69|
p4241
I1810
sV|CPD-6626|
p4242
I7
sV|CPD-10590|
p4243
I56
sV|OCTADEC-9-ENE-118-DIOIC-ACID|
p4244
I26
sV|CPD-12481|
p4245
I3
sV|CPD1G-185|
p4246
I1
sV|CPD-12932|
p4247
I18
sV|CPD-12949|
p4248
I45
sV|CPD-14858|
p4249
I64
sV|CPD-9476|
p4250
I2
sV|trans-delta2-lignoceroyl-ACPs|
p4251
I362
sV|CPD-10159|
p4252
I4
sV|3-OH-BENZYL-ALCOHOL|
p4253
I50
sV|CPD-14151|
p4254
I4
sV|CPD-17047|
p4255
I16
sV|CPD66-63|
p4256
I8
sV|CPD1F-118|
p4257
I4
sV|D-Glc-NAc--Glycoproteins|
p4258
I2
sV|CPD-13027|
p4259
I70
sV|MALEAMATE|
p4260
I38
sV|CPD-12773|
p4261
I36
sV|CPD-15321|
p4262
I10
sV|trans-D2-cis-cis-D5-23-C42-3-ACPs|
p4263
I362
sV|CPD-1091|
p4264
I17
sV|Reduced-flavodoxins|
p4265
I55
sV|CPD-14813|
p4266
I14
sV|CPD-10088|
p4267
I18
sV|CPD-15087|
p4268
I5
sV|CPD-7898|
p4269
I5
sV|BCAA-dehydrogenase-DH-lipoyl|
p4270
I4
sV|ETF-Reduced|
p4271
I188
sV|5-AMINO-2-OXOPENTANOATE|
p4272
I5
sV|CPD-564|
p4273
I26
sV|FRUCTOSE-16-DIPHOSPHATE|
p4274
I326
sV|CPD-16173|
p4275
I3
sV|CPD-13049|
p4276
I9
sV|6-CARBOXYHEX-2-ENOYL-COA|
p4277
I16
sV|CPD-12137|
p4278
I12
sV|CPD-12914|
p4279
I68
sV|CPD-11962|
p4280
I2
sV|CPD-846|
p4281
I2
sV|CPD-14805|
p4282
I12
sV|PqqA-Proteins-with-linked-Glu-Tyr|
p4283
I12
sV|CPD-15216|
p4284
I14
sV|HISTIDINOL|
p4285
I18
sV|CPD-4586|
p4286
I8
sV|CPD-8954|
p4287
I12
sV|CPD-477|
p4288
I10
sV|CPD-7418|
p4289
I8
sV|CPD-13576|
p4290
I9
sV|CPD-9873|
p4291
I30
sV|CPD-13794|
p4292
I34
sV|HCO3|
p4293
I584
sV|CPD-9558|
p4294
I4
sV|CPD-14926|
p4295
I6
sV|CPD-14436|
p4296
I1
sV|3-METHYLTHIOPROPYL-GLUCOSINOLATE|
p4297
I22
sV|CPD-15530|
p4298
I28
sV|CPD-459|
p4299
I8
sV|CPD-7120|
p4300
I6
sV|HYDROQUINONE|
p4301
I22
sV|CPD-4210|
p4302
I38
sV|CPD-14518|
p4303
I10
sV|CPD-1909|
p4304
I33
sV|CPD-9040|
p4305
I28
sV|CPD1A0-6112|
p4306
I24
sV|CPD-11673|
p4307
I6
sV|PHENYLETHYLAMINE|
p4308
I32
sV|CPD-234|
p4309
I16
sV|CPD-83|
p4310
I4
sV|CPD-5521|
p4311
I11
sV|CPD-13623|
p4312
I20
sV|CPD-13689|
p4313
I64
sV|CPD-16550|
p4314
I9
sV|CPD-11875|
p4315
I24
sV|CPD-7558|
p4316
I16
sV|2-CHLOROETHANOL|
p4317
I6
sV|XLFG-Xyloglucans|
p4318
I5
sV|GDP-TP|
p4319
I15
sV|CPD0-1456|
p4320
I28
sV|CPD-16725|
p4321
I28
sV|SINAPATE|
p4322
I29
sV|1-4-D-xylooligosaccharides|
p4323
I4
sV|CPD-9906|
p4324
I32
sV|CPD-16639|
p4325
I24
sV|PYRIDOXAL_PHOSPHATE|
p4326
I75
sV|CPD-4607|
p4327
I6
sV|CPD-12313|
p4328
I10
sV|OMEGA-ALDEHYDE-FATTY-ACID|
p4329
I10
sV|Dermatan-NAcGal-46-disulfates|
p4330
I3
sV|CPD-12061|
p4331
I16
sV|GALACTOSE|
p4332
I43
sV|CPD1G-121|
p4333
I4
sV|CPDMETA-13650|
p4334
I16
sV|Reduced-Rusticyanins|
p4335
I15
sV|CPD-11446|
p4336
I8
sV|CPD-3746|
p4337
I32
sV|CPD-16870|
p4338
I2
sV|5Z8Z11Z14Z17Z-EICOSAPENTAENOATE|
p4339
I67
sV|CPD-685|
p4340
I18
sV|7-CYANO-7-DEAZAGUANINE|
p4341
I11
sV|CPD-10050|
p4342
I13
sV|CPD-6885|
p4343
I4
sV|CPD1G-1346|
p4344
I905
sV|CPD-6645|
p4345
I6
sV|CPD-8996|
p4346
I3
sV|CPD-185|
p4347
I18
sV|Actinorhodin-Intermediate-2|
p4348
I24
sV|CPD-12586|
p4349
I10
sV|CPD-8355|
p4350
I9
sV|--CAMPHOR|
p4351
I9
sV|CADAVERINE|
p4352
I44
sV|CPD-2184|
p4353
I40
sV|Enoylglutaryl-ACP-methyl-esters|
p4354
I20
sV|CPD-11428|
p4355
I22
sV|CPD-13151|
p4356
I16
sV|D-ALLOSE-6-PHOSPHATE|
p4357
I4
sV|cis-delta13-3-hydroxylacceroyl-ACPs|
p4358
I362
sV|Pyruvate-dehydrogenase-lipoate|
p4359
I8
sV|cis-cis-D7-19-3-hydroxyC38-2-ACPs|
p4360
I362
sV|HEXANOYL-COA|
p4361
I44
sV|S-TETRAHYDROBERBERINE|
p4362
I24
sV|CPD-3486|
p4363
I27
sV|CPD-14189|
p4364
I10
sV|CPD-9451|
p4365
I22
sV|CPD-375|
p4366
I16
sV|CPD-650|
p4367
I40
sV|CPD-12568|
p4368
I6
sV|KDO|
p4369
I10
sV|ISOPROPYLAMINE|
p4370
I9
sV|ETHYLBENZENE|
p4371
I4
sV|FMNH2|
p4372
I73
sV|CPD-16961|
p4373
I4
sV|METHACRYLYL-COA|
p4374
I14
sV|CPD-10167|
p4375
I15
sV|ACETYL-GLU|
p4376
I48
sV|CPD-17008|
p4377
I22
sV|CPD-554|
p4378
I16
sV|CPD-10256|
p4379
I12
sV|SUCROSE|
p4380
I101
sV|PSEUDOURIDINE-5-P|
p4381
I2
sV|CPD-1825|
p4382
I2
sV|9--OR-1016-DIHYDROXYPALMITATE|
p4383
I12
sV|CPD-15709|
p4384
I16
sV|CPD-745|
p4385
I6
sV|PROTON|
p4386
I54525
sV|MELILOTATE|
p4387
I1
sV|CPD-710|
p4388
I103
sV|CPD-7061|
p4389
I22
sV|Beta-3-hydroxybutyryl-ACPs|
p4390
I132
sV|CPD-15936|
p4391
I40
sV|Diacylglycerol-NNN-trimethylhomoserines|
p4392
I1
sV|CPD-11525|
p4393
I36
sV|BUTANAL|
p4394
I88
sV|CPD-14329|
p4395
I12
sV|CPD-73|
p4396
I32
sV|5-P-BETA-D-RIBOSYL-AMINE|
p4397
I44
sV|CPD-8937|
p4398
I5
sV|CPD-11916|
p4399
I49
sV|N2-SUCCINYLGLUTAMATE|
p4400
I8
sV|Reduced-Quinones|
p4401
I20
sV|CPD-13755|
p4402
I28
sV|CPD-12768|
p4403
I36
sV|O-UREIDOHOMOSERINE|
p4404
I6
sV|CPD-14109|
p4405
I14
sV|cis-cis-D17-35-3-oxo-C54-2-ACPs|
p4406
I362
sV|CPD-12608|
p4407
I18
sV|GAMMA-GLUTAMYL-GAMMA-AMINOBUTYRALDEH|
p4408
I6
sV|CPD-1862|
p4409
I26
sV|CPD-9535|
p4410
I10
sV|CPD-10453|
p4411
I22
sV|CPD-13382|
p4412
I14
sV|FERROCYTOCHROME-B5|
p4413
I8
sV|NAD|
p4414
I10391
sV|CPD-16781|
p4415
I12
sV|3-PHENYLPROPIONATE|
p4416
I12
sV|CPD-9065|
p4417
I24
sV|CPD-9087|
p4418
I4
sV|Pimeloyl-ACP-methyl-esters|
p4419
I20
sV|CPD-15632|
p4420
I24
sV|CPD-16839|
p4421
I14
sV|CPD-10687|
p4422
I8
sV|PSEUDOTROPINE|
p4423
I10
sV|CPDQT-274|
p4424
I45
sV|trans-D2-cis-D19-C38-ACPs|
p4425
I362
sV|CPD-352|
p4426
I5
sV|CPD-7404|
p4427
I4
sV|FeS-Cluster-Chaperones-ATP|
p4428
I18
sV|CPD-15836|
p4429
I5
sV|CPD-11407|
p4430
I14
sV|CPD-10853|
p4431
I10
sV|cis-cis-D19-37-3-hydroxyC56-2-ACPs|
p4432
I362
sV|CARBAMOYL-SARCOSINE|
p4433
I8
sV|STREPTIDINE-6-PHOSPHATE|
p4434
I36
sV|CPD-9786|
p4435
I10
sV|CPD-16606|
p4436
I4
sV|CPD-13617|
p4437
I38
sV|CPD-536|
p4438
I6
sV|DGMP|
p4439
I10
sV|DATP|
p4440
I12
sV|CPD-14356|
p4441
I28
sV|XYLITOL|
p4442
I7
sV|CPD-8915|
p4443
I2
sV|D-GALACTOSAMINE-6-PHOSPHATE|
p4444
I14
sV|CPD-4703|
p4445
I16
sV|CPD-1125|
p4446
I2
sV|CPD-4884|
p4447
I1
sV|RIBOSE-5P|
p4448
I139
sV|Plant-Ceramide-Phosphate|
p4449
I12
sV|CPD-4123|
p4450
I6
sV|CPD-12830|
p4451
I2
sV|CPD-8256|
p4452
I4
sV|CPD-4403|
p4453
I8
sV|CPD-942|
p4454
I3
sV|CPD-15434|
p4455
I5
sV|CPD-16937|
p4456
I9
sV|CPD-7564|
p4457
I12
sV|CIS-12-DIHYDRONAPHTHALENE-12-DIOL|
p4458
I10
sV|CPD-14091|
p4459
I20
sV|CPD-13048|
p4460
I9
sV|CMP-N-ACETYL-NEURAMINATE|
p4461
I28
sV|G3P|
p4462
I478
sV|CPD-144|
p4463
I12
sV|CPD-14989|
p4464
I6
sV|CPD-15194|
p4465
I75
sV|CPD-15652|
p4466
I22
sV|CPD-8620|
p4467
I38
sV|CPD-16795|
p4468
I22
sV|CPDQT-256|
p4469
I16
sV|CPD-7291|
p4470
I2
sV|CPD-12130|
p4471
I1
sV|CPD-3041|
p4472
I25
sV|CPD-11461|
p4473
I10
sV|BCAA-dehydrogenase-lipoyl|
p4474
I4
sV|CPD-10033|
p4475
I13
sV|INDOLE-3-ACETYL-ASP|
p4476
I50
sV|FORMALDEHYDE|
p4477
I258
sV|CPD-3425|
p4478
I6
sV|TRIETHYLAMINE|
p4479
I5
sV|CPD-12430|
p4480
I2
sV|CPD-12243|
p4481
I4
sV|CPD-8726|
p4482
I10
sV|CPD-14909|
p4483
I18
sV|18-HYDROXYCORTICOSTERONE|
p4484
I6
sV|CPD-6624|
p4485
I21
sV|PHLORETIN|
p4486
I4
sV|cis-delta11-3-hydroxymelissoyl-ACPs|
p4487
I362
sV|CPD-12930|
p4488
I12
sV|CPD1F-130|
p4489
I55
sV|CPD-12665|
p4490
I1
sV|CPD-14450|
p4491
I6
sV|ACETOL|
p4492
I23
sV|910-EPOXY-18-HYDROXYSTEARATE|
p4493
I36
sV|DI-H-URACIL|
p4494
I4
sV|CPD-12487|
p4495
I2
sV|CPD0-1202|
p4496
I10
sV|Oxidized-Rubredoxins|
p4497
I8
sV|CPD-310|
p4498
I4
sV|15-ANHYDRO-D-FRUCTOSE|
p4499
I1
sV|SUCROSE-6P|
p4500
I34
sV|CPD-7634|
p4501
I32
sV|CPD-11747|
p4502
I36
sV|Charged-SER-tRNAs|
p4503
I20
sV|CPD-12037|
p4504
I4
sV|CPD66-61|
p4505
I8
sV|1-2-DIPALMITOYLPHOSPHATIDYLCHOLINE|
p4506
I4
sV|UDP-AAGM-DIAMINOHEPTANEDIOATE|
p4507
I23
sV|6-HYDROXYCYCLOHEX-1-ENE-1-CARBONYL-COA|
p4508
I38
sV|2-KETO-3-METHYL-VALERATE|
p4509
I68
sV|CPD-6744|
p4510
I39
sV|6-Phosphoglc-3-Phosphoglc-Amylopectins|
p4511
I16
sV|CPD-10900|
p4512
I18
sV|MACROCIN|
p4513
I16
sV|Methylated-MtbC-Proteins|
p4514
I2
sV|CPD-15363|
p4515
I24
sV|APIGENIN-7-O-BETA-D-GLUCOSIDE|
p4516
I20
sV|CPD-1042|
p4517
I6
sV|D-PROLINE|
p4518
I16
sV|CPD-10260|
p4519
I10
sV|OH-PYR|
p4520
I52
sV|CPD-10604|
p4521
I2
sV|CPD-6121|
p4522
I8
sV|Guanine15-in-tRNA-with-GUN-anticodon|
p4523
I1
sV|CPD-12643|
p4524
I2
sV|CPD-9583|
p4525
I3
sV|CPD-784|
p4526
I14
sV|UBIQUINOL-30|
p4527
I32
sV|CPD-13541|
p4528
I16
sV|PYRIDOXAMINE|
p4529
I28
sV|CPD-14807|
p4530
I12
sV|trans-D2-cis-cis-D9-27-C46-3-ACPs|
p4531
I362
sV|CPD-14129|
p4532
I5
sV|MTAC|
p4533
I2
sV|CPD-13770|
p4534
I8
sV|CPD-10659|
p4535
I4
sV|2-4-2-N-linked-Glycan|
p4536
I6
sV|CPD-9859|
p4537
I28
sV|Short-Mannan|
p4538
I6
sV|CPD-13796|
p4539
I34
sV|CPD-10591|
p4540
I56
sV|CPD-471|
p4541
I2
sV|CPD-8952|
p4542
I12
sV|CPD-14596|
p4543
I2
sV|CPD-8007|
p4544
I10
sV|CPD-7679|
p4545
I1
sV|CPD-15977|
p4546
I3
sV|2-methylbutanoyl-LovF|
p4547
I12
sV|CPD-9871|
p4548
I30
sV|2-HYDROXY-3-KETO-5-METHYLTHIO-1-PHOSPHOP|
p4549
I12
sV|CPD-12392|
p4550
I30
sV|3-oxo-hexanoyl-ACPs|
p4551
I132
sV|Charged-MET-tRNAs|
p4552
I19
sV|XANTHINE|
p4553
I246
sV|CPD-7028|
p4554
I3
sV|CPD-15567|
p4555
I4
sV|CPD-11641|
p4556
I4
sV|CPD-14430|
p4557
I3
sV|1-CARBOXYVINYL-CARBOXYPHOSPHONATE|
p4558
I36
sV|CPD-8092|
p4559
I40
sV|CPD-8069|
p4560
I3
sV|CPD-12774|
p4561
I6
sV|CPD-15078|
p4562
I15
sV|CPDQT-429|
p4563
I57
sV|CPD-9867|
p4564
I14
sV|CPD-14930|
p4565
I34
sV|O-SINAPOYLCHOLINE|
p4566
I8
sV|D-MYO-INOSITOL-34-BISPHOSPHATE|
p4567
I12
sV|CPD-15407|
p4568
I3
sV|CPD-13661|
p4569
I6
sV|CPD-824|
p4570
I25
sV|TTP|
p4571
I129
sV|CPD-12311|
p4572
I7
sV|CPD-9904|
p4573
I14
sV|CPD0-1065|
p4574
I1
sV|CPD-7676|
p4575
I2
sV|Triacylglycerols|
p4576
I20
sV|CPD-13228|
p4577
I9
sV|CPD-9747|
p4578
I9
sV|CPDQT-432|
p4579
I18
sV|CPD-11506|
p4580
I4
sV|CPD-9133|
p4581
I2
sV|CPDQT-29|
p4582
I36
sV|D-Allopyranose|
p4583
I2
sV|CPD-16701|
p4584
I16
sV|PchE|
p4585
I18
sV|CPD-9910|
p4586
I32
sV|ETOH|
p4587
I74
sV|S-HYDROXYMETHYLGLUTATHIONE|
p4588
I4
sV|CPD-12097|
p4589
I8
sV|HEPTADECANE-CPD|
p4590
I2
sV|CPD-7148|
p4591
I5
sV|CPD-13570|
p4592
I7
sV|3-BENZOYLOXYPROPYL-GLUCOSINOLATE|
p4593
I11
sV|CPD-15607|
p4594
I4
sV|GLC-1-P|
p4595
I330
sV|Cellodextrins|
p4596
I4
sV|7-METHYLXANTHOSINE|
p4597
I16
sV|THR|
p4598
I84
sV|CPD-14868|
p4599
I1
sV|CPD-10228|
p4600
I12
sV|4-FUMARYL-ACETOACETATE|
p4601
I8
sV|CPD-16898|
p4602
I4
sV|CPD-17046|
p4603
I16
sV|CPD-6883|
p4604
I8
sV|R-4-PHOSPHOPANTOTHENOYL-L-CYSTEINE|
p4605
I14
sV|CPD-15020|
p4606
I6
sV|Reduced-Putidaredoxins|
p4607
I14
sV|CPD-9933|
p4608
I10
sV|CPD-14993|
p4609
I6
sV|CPD-2751|
p4610
I34
sV|Reduced-Cyc1-cytochromes|
p4611
I10
sV|CPD-10029|
p4612
I13
sV|CPD-10660|
p4613
I4
sV|4-HYDROXY-BUTYRATE|
p4614
I58
sV|CHLOROBENZENE|
p4615
I1
sV|RAUCAFFRICINE|
p4616
I34
sV|PURINE|
p4617
I39
sV|ACROLEIN|
p4618
I18
sV|CPD-10171|
p4619
I24
sV|CPD-13802|
p4620
I34
sV|CPD-4483|
p4621
I8
sV|2-METHYLMALEATE|
p4622
I14
sV|CPD-16017|
p4623
I8
sV|CPD-16963|
p4624
I2
sV|4-HYDROXYPHENYLLACTATE|
p4625
I10
sV|CPD-10165|
p4626
I14
sV|DCTP|
p4627
I94
sV|CPD-3942|
p4628
I12
sV|cis-delta9-3-hydroxymontanoyl-ACPs|
p4629
I362
sV|CPD-14347|
p4630
I28
sV|CPD-9941|
p4631
I10
sV|Heparan-NAc-glucosaminide|
p4632
I22
sV|CPD-1827|
p4633
I11
sV|Triacylglycerides|
p4634
I3
sV|ERYTHROSE-4P|
p4635
I153
sV|Heparan-Glc-N-3-6-trisulfate|
p4636
I11
sV|25-DICHLOROPHENOL|
p4637
I10
sV|5-HYDROXY-CONIFERALDEHYDE|
p4638
I34
sV|CPD-743|
p4639
I6
sV|CPD-712|
p4640
I102
sV|CPD-206|
p4641
I3
sV|CPD-11527|
p4642
I36
sV|CPD-7036|
p4643
I4
sV|PHTYOSPHINGOSINE-1-P|
p4644
I30
sV|CPD-1089|
p4645
I41
sV|CPD-12635|
p4646
I18
sV|CPD-7995|
p4647
I42
sV|DTDP-L-DIHYDROSTREPTOSE|
p4648
I36
sV|CPD-14682|
p4649
I14
sV|N-terminal-ubiquitinyl-proteins|
p4650
I6
sV|DOLICHOLP|
p4651
I143
sV|CPD-13757|
p4652
I28
sV|CPD-9533|
p4653
I12
sV|CPD-7708|
p4654
I11
sV|CPD-10451|
p4655
I22
sV|CPD-14417|
p4656
I8
sV|CPD-16783|
p4657
I16
sV|S-CD-S-SP-Complex|
p4658
I18
sV|CIS-ACONITATE|
p4659
I302
sV|CPD-9067|
p4660
I8
sV|Di-Rhamnolipids|
p4661
I2
sV|CPD-15834|
p4662
I10
sV|CPD-11405|
p4663
I47
sV|CPD-11670|
p4664
I6
sV|CPD-16837|
p4665
I14
sV|CPD-8048|
p4666
I3
sV|cis-cis-D11-29-3-hydroxyC48-2-ACPs|
p4667
I362
sV|CPD-9646|
p4668
I90
sV|CPD-10851|
p4669
I10
sV|Polyketide-ACP-Proteins|
p4670
I148
sV|CIS-2-CHLORO-4-CARBOXYMETHYLENEBUT-2-EN-|
p4671
I10
sV|CPD-12218|
p4672
I6
sV|CPD-11518|
p4673
I36
sV|S-HYDROXYMETHYLMYCOTHIOL|
p4674
I4
sV|CPD-16600|
p4675
I33
sV|+-5-oxo-1-2-campholide|
p4676
I14
sV|GLYCOL|
p4677
I4
sV|SELENATE|
p4678
I4
sV|CPD-14479|
p4679
I6
sV|HOMOGENTISATE|
p4680
I32
sV|CPD-543|
p4681
I1
sV|ADIPATE|
p4682
I10
sV|MPT-Synthases|
p4683
I12
sV|CPD-9668|
p4684
I24
sV|CPD-16743|
p4685
I8
sV|CPD-12332|
p4686
I3
sV|METOH|
p4687
I90
sV|DMPBQ|
p4688
I12
sV|CPD-9482|
p4689
I3
sV|CPD-14887|
p4690
I39
sV|CPD-14830|
p4691
I18
sV|Perthiols|
p4692
I8
sV|CPD-15934|
p4693
I16
sV|All-trans-3-hydroxyretinal-RBPs|
p4694
I12
sV|NICOTINATE_NUCLEOTIDE|
p4695
I136
sV|Rhodopsins|
p4696
I55
sV|5-OXOPROLINE|
p4697
I22
sV|CPD-8608|
p4698
I38
sV|CPD-8250|
p4699
I16
sV|CPD-13389|
p4700
I14
sV|CPD-944|
p4701
I6
sV|HG+2|
p4702
I2
sV|CPDQT-349|
p4703
I16
sV|CPD-16935|
p4704
I3
sV|CPD-4902|
p4705
I7
sV|CPD-146|
p4706
I4
sV|CPD-15754|
p4707
I48
sV|CPD-16760|
p4708
I1
sV|CPDQT-281|
p4709
I30
sV|CPD-15419|
p4710
I14
sV|CPD1F-453|
p4711
I93
sV|CPD-11463|
p4712
I15
sV|CPD-16851|
p4713
I14
sV|CPD-3630|
p4714
I10
sV|CPD-12358|
p4715
I14
sV|3-METHYLBENZYL-ALCOHOL|
p4716
I4
sV|CPD-10789|
p4717
I39
sV|cis-cis-D21-39-3-oxo-C58-2-ACPs|
p4718
I362
sV|CPD-160|
p4719
I20
sV|CPD1G-853|
p4720
I181
sV|C78-alpha-mycolate-pks13|
p4721
I362
sV|HYDRPHENYLAC-CPD|
p4722
I67
sV|INDOLE-3-ACETYL-LEU|
p4723
I7
sV|CPD-12298|
p4724
I18
sV|CPD-8728|
p4725
I10
sV|ALL-TRANS-HEXAPRENYL-DIPHOSPHATE|
p4726
I79
sV|CPD-12936|
p4727
I12
sV|CPD-12485|
p4728
I5
sV|Anthocyanidins|
p4729
I2
sV|D-SEDOHEPTULOSE-7-P|
p4730
I147
sV|CPD-6622|
p4731
I21
sV|CPD-3193|
p4732
I64
sV|CPD-617|
p4733
I6
sV|CPD-15659|
p4734
I54
sV|CPD1G-83|
p4735
I362
sV|CPD-17043|
p4736
I16
sV|DTDP-DEOH-DEOXY-GLUCOSE|
p4737
I161
sV|CPD-13925|
p4738
I6
sV|yW-72|
p4739
I5
sV|CPD-2301|
p4740
I30
sV|CPD-312|
p4741
I4
sV|CPD1F-114|
p4742
I79
sV|SoxZY-Cysteine-Sulfate|
p4743
I6
sV|ALPHA-RIBAZOLE|
p4744
I16
sV|SINAPOYL-S-MALATE|
p4745
I4
sV|CPD-10100|
p4746
I18
sV|A-LIPID-HYDROPEROXIDE|
p4747
I26
sV|NITRATE|
p4748
I17
sV|CPD-15499|
p4749
I22
sV|CPD-13913|
p4750
I8
sV|CPD-15422|
p4751
I11
sV|CPD-12017|
p4752
I4
sV|N-SUCCINYL-2-AMINO-6-KETOPIMELATE|
p4753
I16
sV|CPD-12836|
p4754
I6
sV|3-METHYLTHIOPROPYLHYDROXAMIC-ACID|
p4755
I22
sV|Lipids|
p4756
I4
sV|CPD-6746|
p4757
I40
sV|CPD-15361|
p4758
I24
sV|PHENYLGLYOXYLATE|
p4759
I12
sV|CPD-6123|
p4760
I8
sV|L-RHAMNONATE|
p4761
I26
sV|CPD-10262|
p4762
I10
sV|3-METHYLPHENYLITACONYL-COA|
p4763
I6
sV|CPD-11480|
p4764
I18
sV|CPD-15269|
p4765
I2
sV|CPD-560|
p4766
I2
sV|CPD-265|
p4767
I6
sV|2-KETO-6-AMINO-CAPROATE|
p4768
I38
sV|CPD-14053|
p4769
I5
sV|P-AMINO-BENZOATE|
p4770
I20
sV|CHLORATE|
p4771
I1
sV|CPD-13776|
p4772
I30
sV|2-OCTAPRENYL-6-METHOXYPHENOL|
p4773
I30
sV|CPD-15212|
p4774
I2
sV|CPD-338|
p4775
I30
sV|CPD1F-132|
p4776
I38
sV|CPD-12663|
p4777
I1
sV|CPD-10071|
p4778
I13
sV|CPD-10353|
p4779
I3
sV|CPD-8001|
p4780
I5
sV|CPD-11940|
p4781
I4
sV|CPD-13798|
p4782
I34
sV|HOMO-SER|
p4783
I17
sV|CPD0-1718|
p4784
I18
sV|CPD-10470|
p4785
I6
sV|CPD-7171|
p4786
I20
sV|CPD-16529|
p4787
I5
sV|CPD-8724|
p4788
I12
sV|CPD-9835|
p4789
I3
sV|CPD-9044|
p4790
I28
sV|PHOSPHATIDYL-MYO-INOSITOL-45-BISPHOSPHA|
p4791
I67
sV|CPD-8090|
p4792
I60
sV|CPD-8067|
p4793
I26
sV|CPD-12776|
p4794
I3
sV|CPD-7849|
p4795
I27
sV|CPD-12897|
p4796
I16
sV|CPD-9869|
p4797
I30
sV|CPD-10821|
p4798
I20
sV|BIOPTERIN|
p4799
I4
sV|ACRYLONITRILE|
p4800
I1
sV|CPD-14454|
p4801
I6
sV|CPD-247|
p4802
I8
sV|CPD-12284|
p4803
I3
sV|CPD-11879|
p4804
I24
sV|CPD-13445|
p4805
I9
sV|CPD-13498|
p4806
I1
sV|CPD0-1063|
p4807
I1
sV|CPD-10437|
p4808
I6
sV|3-Methyl-Saturated-Fatty-Acyl-CoA|
p4809
I10
sV|L-1-PHOSPHATIDYL-SERINE|
p4810
I26
sV|COLUMBAMINE|
p4811
I6
sV|CPD-14505|
p4812
I27
sV|CPD-15830|
p4813
I4
sV|CPD-4603|
p4814
I5
sV|CPD-7414|
p4815
I4
sV|CPD-9741|
p4816
I9
sV|DEHYDRO-3-DEOXY-L-RHAMNONATE|
p4817
I26
sV|DEOXYADENOSINE|
p4818
I13
sV|THF-GLU-N|
p4819
I408
sV|CPD66-78|
p4820
I24
sV|a-lipid-moiety|
p4821
I5
sV|CPD-9567|
p4822
I18
sV|CPD-7000|
p4823
I26
sV|SEC-tRNAs|
p4824
I5
sV|cis-cis-D17-35-3-hydroxyC54-2-ACPs|
p4825
I362
sV|CPD-11504|
p4826
I1
sV|CPD-7972|
p4827
I6
sV|ADP-L-GLYCERO-D-MANNO-HEPTOSE|
p4828
I40
sV|CPD-12091|
p4829
I18
sV|CPD1G-1532|
p4830
I181
sV|CPD-9912|
p4831
I16
sV|CPD-8950|
p4832
I1
sV|CPD-14594|
p4833
I6
sV|CPD-9848|
p4834
I6
sV|CPD-13572|
p4835
I7
sV|Trans-D3-cis-D5-dodecenoyl-ACPs|
p4836
I10
sV|NI+2|
p4837
I6
sV|CPD-16681|
p4838
I22
sV|DIMETHYLMAL-CPD|
p4839
I16
sV|Palmitoleoyl-ACPs|
p4840
I28
sV|CPD-12693|
p4841
I2
sV|CPD-6881|
p4842
I14
sV|CPD-16467|
p4843
I18
sV|DTDP-DEOH-DEOXY-MANNOSE|
p4844
I21
sV|CPD-6641|
p4845
I21
sV|CPD0-1158|
p4846
I8
sV|MANNITOL-1P|
p4847
I16
sV|FUM|
p4848
I435
sV|GLT|
p4849
I1486
sV|CPD-16604|
p4850
I2
sV|PqqA-Proteins|
p4851
I6
sV|Acetoacetyl-ACPs|
p4852
I85
sV|CPD-14991|
p4853
I7
sV|trans-D20-39-oxo-40-Me-C60-1-ACPs|
p4854
I362
sV|2-Lysophosphatidylcholines|
p4855
I20
sV|CPD-7289|
p4856
I2
sV|ANTHRANILATE|
p4857
I116
sV|CPD-15290|
p4858
I4
sV|CPD-2188|
p4859
I81
sV|Wax-Esters|
p4860
I5
sV|CPD-10027|
p4861
I13
sV|CPD-10797|
p4862
I5
sV|CPD-10870|
p4863
I3
sV|CPD-421|
p4864
I8
sV|Non-Rhamonsylated-Rhamnosyl-Acceptors|
p4865
I2
sV|CPD-12304|
p4866
I18
sV|N-METHYLANTHRANILOYL-COA|
p4867
I6
sV|CPD-11952|
p4868
I12
sV|CPD-8004|
p4869
I50
sV|CPD-16965|
p4870
I26
sV|CPD-7673|
p4871
I13
sV|CPD-10163|
p4872
I21
sV|Heparan-GlcN-6-N-bisulfate|
p4873
I22
sV|CPD-6993|
p4874
I6
sV|CPD-9240|
p4875
I16
sV|SCOPOLAMINE|
p4876
I16
sV|2-OXOSUCCINAMATE|
p4877
I6
sV|CPD-3944|
p4878
I6
sV|CPD-714|
p4879
I42
sV|CPD-12167|
p4880
I3
sV|CPD-741|
p4881
I6
sV|CPD-9466|
p4882
I62
sV|DIETHYLPHOSPHATE|
p4883
I2
sV|CPD-14751|
p4884
I34
sV|PHENYLACETALDOXIME|
p4885
I32
sV|CPD-204|
p4886
I20
sV|CPD-501|
p4887
I20
sV|Cis-2-enoyl-CoAs|
p4888
I5
sV|3-METHYL-CROTONYL-COA|
p4889
I18
sV|CPD-1087|
p4890
I84
sV|2-O-CAFFEOYLGLUCARATE|
p4891
I2
sV|CPD-10737|
p4892
I3
sV|CPD-4184|
p4893
I38
sV|CPD-8652|
p4894
I22
sV|CPD-15910|
p4895
I14
sV|CPD-10636|
p4896
I10
sV|CPD-13751|
p4897
I98
sV|CPD-10457|
p4898
I44
sV|CPD-9531|
p4899
I18
sV|CPD-15586|
p4900
I4
sV|CPD-14415|
p4901
I4
sV|CD-SP-2Fe2S-Complex|
p4902
I18
sV|3-O-acetyl-Rhamnogalacturns|
p4903
I5
sV|CPD-11736|
p4904
I36
sV|CPD-371|
p4905
I8
sV|CPD-654|
p4906
I46
sV|UREA|
p4907
I63
sV|3-oxo-cis-D7-tetradecenoyl-ACPs|
p4908
I16
sV|CPD-11403|
p4909
I42
sV|HOPAN-22-OL|
p4910
I23
sV|CPD-11293|
p4911
I8
sV|CPD-16868|
p4912
I2
sV|CPD-12702|
p4913
I4
sV|CPD-10806|
p4914
I3
sV|CPD-7400|
p4915
I4
sV|5-AMINOPENTANOATE|
p4916
I38
sV|CPD-16602|
p4917
I4
sV|CPD-901|
p4918
I1
sV|CPD-12261|
p4919
I5
sV|CPD-8773|
p4920
I4
sV|Oleoyl-ACPs|
p4921
I2
sV|CPD-15528|
p4922
I22
sV|D-XYLULOSE|
p4923
I6
sV|CPD-8919|
p4924
I8
sV|Vernolates|
p4925
I23
sV|CPD-4662|
p4926
I8
sV|CPD-9666|
p4927
I16
sV|CPD-15042|
p4928
I12
sV|CPD-16624|
p4929
I14
sV|CPD-14832|
p4930
I18
sV|CPD-4888|
p4931
I64
sV|CPD1A0-6106|
p4932
I24
sV|CPD-11521|
p4933
I36
sV|Palmitoyl-ACPs|
p4934
I161
sV|Sterols|
p4935
I12
sV|CPD-4127|
p4936
I68
sV|CPD-7560|
p4937
I16
sV|CPD-9775|
p4938
I16
sV|CPD-762|
p4939
I1
sV|L-SELENOCYSTEINE|
p4940
I9
sV|CPD-15190|
p4941
I22
sV|CPD-148|
p4942
I4
sV|CPD-16737|
p4943
I10
sV|CPD-12387|
p4944
I26
sV|CoM|
p4945
I54
sV|CPD-13511|
p4946
I41
sV|CPD-6562|
p4947
I1
sV|CPD-13544|
p4948
I16
sV|CPD-16408|
p4949
I8
sV|GLY-tRNAs|
p4950
I34
sV|CPD-10839|
p4951
I8
sV|PHENOL-PHOSPHATE|
p4952
I6
sV|CPD-405|
p4953
I12
sV|CPD1G-1|
p4954
I10
sV|CPD-166|
p4955
I56
sV|CPD-8047|
p4956
I6
sV|CPD-12247|
p4957
I2
sV|CPD-9852|
p4958
I28
sV|CPD-16719|
p4959
I12
sV|P-COUMAROYL-COA|
p4960
I412
sV|trans-18-CP-37-Mex-38-Me-C60-ACPs|
p4961
I362
sV|CPD-4753|
p4962
I19
sV|Heparan-sulfate-D-GlcNS|
p4963
I44
sV|CPD-9312|
p4964
I2
sV|CPD-12934|
p4965
I15
sV|CPD-708|
p4966
I82
sV|CPD-13923|
p4967
I21
sV|CPD-3191|
p4968
I34
sV|CPD-14852|
p4969
I32
sV|CPD-13174|
p4970
I20
sV|CPD-13121|
p4971
I4
sV|CPD-697|
p4972
I36
sV|CPD-12180|
p4973
I24
sV|6-KESTOSE|
p4974
I4
sV|CPD-14504|
p4975
I27
sV|S-CD-Apo-SP-Complex|
p4976
I18
sV|2-KETOGLUTARATE|
p4977
I1975
sV|CPD-10893|
p4978
I18
sV|METHANOFURAN|
p4979
I16
sV|Purine-Bases|
p4980
I6
sV|cis-cis-D19-31-C50-2-ACPs|
p4981
I362
sV|CPD-8343|
p4982
I4
sV|Retinol-Binding-Proteins|
p4983
I22
sV|CPD-17023|
p4984
I2
sV|CPD-9992|
p4985
I9
sV|CPD-13911|
p4986
I10
sV|CPD-14320|
p4987
I36
sV|VOMILENINE|
p4988
I68
sV|CPD-15367|
p4989
I24
sV|CPD-10608|
p4990
I8
sV|CPD-12570|
p4991
I2
sV|GAMA-TOCOPHEROL|
p4992
I12
sV|CPD-9587|
p4993
I4
sV|CPD-267|
p4994
I20
sV|COUMARIN|
p4995
I5
sV|CPD-14969|
p4996
I30
sV|CPD-788|
p4997
I6
sV|L-arabinopyranose|
p4998
I16
sV|CPD-6781|
p4999
I21
sV|CPD-10242|
p5000
I24
sV|CPD-13958|
p5001
I14
sV|CPD-10239|
p5002
I24
sV|CPD-8660|
p5003
I14
sV|CPD-15210|
p5004
I4
sV|CPD-10655|
p5005
I2
sV|CPD-9958|
p5006
I15
sV|CPD-15799|
p5007
I16
sV|CPD-15777|
p5008
I5
sV|CPD-12696|
p5009
I10
sV|LACTALD|
p5010
I56
sV|CPD-7224|
p5011
I16
sV|C5|
p5012
I10
sV|Cysteine-Desulfurase-L-cysteine|
p5013
I36
sV|CPD-1133|
p5014
I12
sV|NIACINAMIDE|
p5015
I52
sV|PYRROLINE-HYDROXY-CARBOXYLATE|
p5016
I8
sV|CPD-10472|
p5017
I10
sV|4-AMINO-4-DEOXYCHORISMATE|
p5018
I8
sV|Cinnamoyl-CoAs|
p5019
I14
sV|cis-cis-D9-27-3-oxo-C46-2-ACPs|
p5020
I362
sV|D-Galactopyranuronate|
p5021
I36
sV|CARBAMOYL-P|
p5022
I108
sV|CPD-7725|
p5023
I4
sV|CPD-1282|
p5024
I2
sV|CPD-9949|
p5025
I14
sV|AEROBACTIN|
p5026
I3
sV|CPD-8065|
p5027
I6
sV|CPD-7173|
p5028
I10
sV|CPD-11755|
p5029
I10
sV|CPD-602|
p5030
I16
sV|CPD-675|
p5031
I24
sV|ISOEUGENOL|
p5032
I5
sV|ETHANOL-AMINE|
p5033
I40
sV|METHYLBUT-CPD|
p5034
I4
sV|CPD-14117|
p5035
I1
sV|CPD-245|
p5036
I6
sV|CPD-10523|
p5037
I8
sV|CPD-548|
p5038
I4
sV|CPD-14452|
p5039
I6
sV|CPD-14934|
p5040
I17
sV|CPD-10449|
p5041
I11
sV|CPD-13683|
p5042
I8
sV|R-3-hydroxypetroselinoyl-ACPs|
p5043
I10
sV|CPD-13756|
p5044
I28
sV|CPD-8756|
p5045
I7
sV|DEOXYXYLULOSE-5P|
p5046
I73
sV|CPD-7559|
p5047
I16
sV|L-SEP-tRNACys|
p5048
I2
sV|CPD-7119|
p5049
I3
sV|CPD-10013|
p5050
I18
sV|34-DIHYDROXYPHENYLACETALDEHYDE|
p5051
I34
sV|PREGNENOLONE|
p5052
I8
sV|CPD-14507|
p5053
I18
sV|CPD-6983|
p5054
I14
sV|CPD-8738|
p5055
I10
sV|CPD-11553|
p5056
I12
sV|CPD-9743|
p5057
I9
sV|CPD-54|
p5058
I78
sV|CPD-8192|
p5059
I8
sV|CPD-9137|
p5060
I10
sV|CPD-7002|
p5061
I4
sV|CPD-8907|
p5062
I14
sV|CPD-15400|
p5063
I9
sV|CPD-428|
p5064
I6
sV|CPD-16741|
p5065
I8
sV|CPD-821|
p5066
I1
sV|NDP-L-digitoxose|
p5067
I30
sV|CPD-16683|
p5068
I2
sV|12-Hydroxyjasmonates|
p5069
I4
sV|CPD-15024|
p5070
I11
sV|CPD-13896|
p5071
I14
sV|PHYTYL-PYROPHOSPHATE|
p5072
I20
sV|CPD-13530|
p5073
I18
sV|ACETYL-P|
p5074
I278
sV|MANNOSE-6P|
p5075
I49
sV|CPD-17095|
p5076
I4
sV|Actinorhodin-Intermediate-4|
p5077
I24
sV|Glucopyranose|
p5078
I129
sV|CPD-12050|
p5079
I32
sV|AMINO-RIBOSYLAMINO-1H-3H-PYR-DIONE|
p5080
I79
sV|3Z-PHYTOCHROMOBILIN|
p5081
I4
sV|DIMETHYLBENZIMIDAZOLE|
p5082
I36
sV|CARBOXYMETHYL-HYDROXYPHENYLPROPCOA|
p5083
I10
sV|CANAVANINE|
p5084
I4
sV|CPD-14997|
p5085
I3
sV|CPD-7651|
p5086
I7
sV|CPD-11477|
p5087
I18
sV|CPD-9444|
p5088
I8
sV|CPD0-1162|
p5089
I11
sV|CPD-16676|
p5090
I12
sV|TOLUENECISDHDIOL|
p5091
I6
sV|CPD-10791|
p5092
I8
sV|3-OCTAPRENYL-4-HYDROXYBENZOATE|
p5093
I30
sV|CPD-10255|
p5094
I12
sV|CORTICOSTERONE|
p5095
I6
sV|CPD-15738|
p5096
I48
sV|trans-D2-cis-D15-gheddoyl-ACPs|
p5097
I543
sV|CPD-13008|
p5098
I22
sV|CPD-12908|
p5099
I68
sV|CPD-15616|
p5100
I12
sV|3-hydroxypimeloyl-ACP-methyl-esters|
p5101
I20
sV|CPD-16610|
p5102
I12
sV|D-ALLULOSE-6-PHOSPHATE|
p5103
I4
sV|D-6-P-GLUCONO-DELTA-LACTONE|
p5104
I64
sV|CPD-7671|
p5105
I20
sV|CPD-9464|
p5106
I21
sV|HYDROXY-METHYL-BUTENYL-DIP|
p5107
I48
sV|CPD-3946|
p5108
I100
sV|CPD-12259|
p5109
I14
sV|Ubiquitin-C-Terminal-Glycine|
p5110
I6
sV|CPD1F-136|
p5111
I38
sV|CPD-14343|
p5112
I10
sV|24-26-N-linked-Glycan|
p5113
I12
sV|CPD-10624|
p5114
I2
sV|3-Hydroxy-octanoyl-ACPs|
p5115
I116
sV|CPD-14753|
p5116
I13
sV|CPD-716|
p5117
I67
sV|FORMYL-THMPT|
p5118
I16
sV|CPD-202|
p5119
I105
sV|CPD-503|
p5120
I16
sV|CPD-2542|
p5121
I14
sV|KDO2-LAUROYL-LIPID-IVA|
p5122
I14
sV|CPD-4186|
p5123
I76
sV|C86-cis-keto-mycolate-pks13|
p5124
I362
sV|CPD-1085|
p5125
I6
sV|Mannosyl5-N-acetyl-glucosamine2-R|
p5126
I12
sV|3-OXO-DELTA4-DEOXYCHOLYL-COA|
p5127
I14
sV|CPD-11949|
p5128
I18
sV|CPD-10735|
p5129
I6
sV|HOMO-CYS|
p5130
I120
sV|CPD-10634|
p5131
I18
sV|HX|
p5132
I11
sV|CPD-15912|
p5133
I14
sV|Carboxybiotin-BCCP|
p5134
I6
sV|CPD-10455|
p5135
I22
sV|CPD-7636|
p5136
I32
sV|CPD-12966|
p5137
I1
sV|CPD-11222|
p5138
I16
sV|CPD-14016|
p5139
I1
sV|1-4-alpha-D-galacturonosyl|
p5140
I6
sV|CPD-13088|
p5141
I10
sV|CPD-14875|
p5142
I8
sV|24-246-N-linked-Glycan|
p5143
I6
sV|4-METHYLBENZYL-ALCOHOL|
p5144
I4
sV|CPD-4578|
p5145
I98
sV|Xanthan|
p5146
I18
sV|RIBULOSE-5P|
p5147
I229
sV|CPD-11401|
p5148
I14
sV|CPD-10776|
p5149
I10
sV|CPD-9134|
p5150
I10
sV|CPD-13782|
p5151
I12
sV|CPD-3061|
p5152
I16
sV|CPD-12706|
p5153
I10
sV|2-HYDROXY-6-2-CARBOXYPHENYL-6-OXO-24-|
p5154
I12
sV|11-DEOXYCORTICOSTERONE|
p5155
I6
sV|CPD-746|
p5156
I6
sV|CPD-7424|
p5157
I8
sV|Reduced-cytochromes|
p5158
I5
sV|CPD-8737|
p5159
I5
sV|CPD-14834|
p5160
I9
sV|SS-DIMETHYL-BETA-PROPIOTHETIN|
p5161
I11
sV|CPD-15683|
p5162
I9
sV|CPD-16622|
p5163
I57
sV|CPD-7390|
p5164
I26
sV|CPD1A0-6104|
p5165
I24
sV|CPD-11523|
p5166
I36
sV|GUANOSINE|
p5167
I25
sV|CPD-14652|
p5168
I4
sV|Alpha-selinene|
p5169
I1
sV|CPD-9777|
p5170
I16
sV|2-trans-4-cis-dienoyl-CoAs|
p5171
I5
sV|CPD-11789|
p5172
I32
sV|CPD-11020|
p5173
I36
sV|CPD-15192|
p5174
I50
sV|cis-cis-D7-25-3-oxo-C44-2-ACPs|
p5175
I362
sV|CPDQT-285|
p5176
I18
sV|trans-D2-cis-cis-D9-21-C40-3-ACPs|
p5177
I362
sV|CPD-11679|
p5178
I6
sV|CPD-13546|
p5179
I4
sV|RS-3-Sulfolactate|
p5180
I6
sV|ALPHA-AMINOPHENYL-GLYOXYLATE|
p5181
I12
sV|ADENOSYLCOBALAMIN-5-P|
p5182
I36
sV|METHYL-GLYOXAL|
p5183
I40
sV|CPD-12463|
p5184
I4
sV|Purine-Ribonucleosides|
p5185
I6
sV|CPD-14206|
p5186
I22
sV|CPD-9573|
p5187
I12
sV|CPD-113|
p5188
I30
sV|CPD-12249|
p5189
I2
sV|CPD-15838|
p5190
I10
sV|CPD-4207|
p5191
I4
sV|INDOLE-3-ACETYL-GLU|
p5192
I18
sV|CPD-9744|
p5193
I9
sV|DTDP-D-FUCOSE|
p5194
I13
sV|CPD-12489|
p5195
I8
sV|CPD-14075|
p5196
I36
sV|2CH2-3CH3-SUCC|
p5197
I16
sV|CPD-691|
p5198
I42
sV|3-oxo-lignoceroyl-ACPs|
p5199
I362
sV|CPD-12039|
p5200
I32
sV|CPD-14850|
p5201
I2
sV|CPD-13921|
p5202
I14
sV|CysO-Sulfur-carrier-proteins|
p5203
I6
sV|PYROGALLOL|
p5204
I34
sV|CPD-8659|
p5205
I1
sV|4-METHYLPENTANAL|
p5206
I2
sV|CPD-7416|
p5207
I2
sV|CPD-868|
p5208
I28
sV|CPD-6884|
p5209
I4
sV|8-AMINO-7-OXONONANOATE|
p5210
I16
sV|CPD-6742|
p5211
I39
sV|S-Substituted-Glutamyl-Cysteine|
p5212
I14
sV|5-ALPHA-CHOLESTA-724-DIEN-3-BETA-OL|
p5213
I76
sV|CPD-17021|
p5214
I4
sV|CPD-13888|
p5215
I64
sV|CPD-4125|
p5216
I68
sV|CPD-4620|
p5217
I3
sV|CPD1F-95|
p5218
I64
sV|DIPHOSPHO-1D-MYO-INOSITOL-TETRAKISPHOSPH|
p5219
I8
sV|trans-D2-cis-D7-cerotoyl-ACPs|
p5220
I362
sV|m7G5-pppRm-Rm-mRNAs|
p5221
I2
sV|Truncated-Limit-Dextrins|
p5222
I8
sV|CPD-7650|
p5223
I8
sV|GLYCEROL-3P|
p5224
I80
sV|ARG-tRNAs|
p5225
I19
sV|12-DIHYDROVOMILENINE|
p5226
I34
sV|CPD-12576|
p5227
I14
sV|CPD-261|
p5228
I2
sV|CPD-12649|
p5229
I3
sV|Metaretinochromes|
p5230
I15
sV|12-OXO-TRANS-10-DODECENOATE|
p5231
I8
sV|CPD66-58|
p5232
I3
sV|Levan|
p5233
I2
sV|CPD-720|
p5234
I103
sV|DEOXYURIDINE|
p5235
I12
sV|CPD0-929|
p5236
I18
sV|AMINOMETHYLDIHYDROLIPOYL-GCVH|
p5237
I5
sV|CPD-10240|
p5238
I24
sV|CPD-11685|
p5239
I14
sV|EPITHIONITRILES|
p5240
I3
sV|CPD-8662|
p5241
I7
sV|D-arabinofuranose|
p5242
I14
sV|CPD-10598|
p5243
I14
sV|CPD-13822|
p5244
I8
sV|Heparan-sulfate-3-N-disulfate|
p5245
I22
sV|6-HYDROXYMELLEIN|
p5246
I4
sV|CPD-15771|
p5247
I48
sV|CPD-12694|
p5248
I4
sV|CPD-15924|
p5249
I8
sV|CPDQT-418|
p5250
I16
sV|CPD-10313|
p5251
I8
sV|CPD0-2101|
p5252
I2
sV|CPD-9168|
p5253
I9
sV|CPD-7059|
p5254
I2
sV|CPD-14836|
p5255
I7
sV|CPD-12772|
p5256
I18
sV|TESTOSTERONE|
p5257
I14
sV|CPD-9048|
p5258
I28
sV|CPD-11753|
p5259
I10
sV|2-PHOSPHO-4-CYTIDINE-5-DIPHOSPHO-2-C-MET|
p5260
I32
sV|CPD-8927|
p5261
I8
sV|CPD-5162|
p5262
I28
sV|CPD-600|
p5263
I8
sV|CPD-14115|
p5264
I3
sV|CPD-9037|
p5265
I52
sV|CPD-14936|
p5266
I68
sV|HOMO-CIS-ACONITATE|
p5267
I64
sV|cis-delta19-C38-ACPs|
p5268
I362
sV|Dihydroquercetins|
p5269
I2
sV|CPD-2209|
p5270
I32
sV|CPD-14405|
p5271
I44
sV|CPD-10080|
p5272
I18
sV|CPD-15365|
p5273
I24
sV|CPD-15644|
p5274
I13
sV|CPD-13667|
p5275
I18
sV|5-HYDROXYINDOLE_ACETATE|
p5276
I6
sV|Methyl-thioethers|
p5277
I8
sV|CPD1F-4|
p5278
I4
sV|HISTAMINE|
p5279
I4
sV|BENZOATE|
p5280
I130
sV|MANNOSE-1P|
p5281
I45
sV|FORMAMIDE|
p5282
I5
sV|LUTEOLIN-7-O-BETA-D-DIGLUCURONIDE|
p5283
I13
sV|CPD-10011|
p5284
I36
sV|Oxo-glutarate-dehydrogenase-DH-lipoyl|
p5285
I4
sV|CPD-1117|
p5286
I24
sV|CPD-9790|
p5287
I5
sV|CPD-14501|
p5288
I18
sV|LIPID-IV-A|
p5289
I6
sV|VINDOLINE|
p5290
I14
sV|CPD-11555|
p5291
I8
sV|Charged-ASN-tRNAs|
p5292
I23
sV|CPD-9135|
p5293
I10
sV|CPD-9142|
p5294
I4
sV|PROPANOL|
p5295
I4
sV|CPD-6981|
p5296
I15
sV|S2O3|
p5297
I9
sV|CPD-6976|
p5298
I18
sV|CPD-9916|
p5299
I8
sV|CPD0-1080|
p5300
I9
sV|R-3-hydroxymyristoyl-ACPs|
p5301
I126
sV|CPD-7004|
p5302
I6
sV|CPD-520|
p5303
I179
sV|CPD-4892|
p5304
I24
sV|ACETALD|
p5305
I241
sV|CPD-14590|
p5306
I10
sV|PHOSPHORIBOSYL-FORMIMINO-AICAR-P|
p5307
I18
sV|CPD-6221|
p5308
I6
sV|MEVALONATE-DP|
p5309
I14
sV|4-HYDROXYMUCONIC-SEMIALDEHYDE|
p5310
I16
sV|BETA-CYCLOPIAZONATE|
p5311
I6
sV|CPD-8610|
p5312
I38
sV|CPD-10058|
p5313
I18
sV|CPD-13894|
p5314
I14
sV|NAPHTHALENE-12-DIOL|
p5315
I10
sV|BtrI-Acyl-Carrier-Proteins|
p5316
I12
sV|4S-limonene-1-2-epoxides|
p5317
I12
sV|cis-delta15-3-oxo-gheddoyl-ACPs|
p5318
I362
sV|CPD-10047|
p5319
I26
sV|GERANIOL|
p5320
I47
sV|CPD-14995|
p5321
I7
sV|CPD-14254|
p5322
I17
sV|DUMP|
p5323
I126
sV|VANILLYL_MANDELATE|
p5324
I24
sV|CPD-14628|
p5325
I18
sV|trans-D18-37-MOH-38-Me-C58-1-ACPs|
p5326
I362
sV|CPD-13509|
p5327
I2
sV|Red-Thioredoxin|
p5328
I103
sV|CPD-8636|
p5329
I2
sV|CPD-11420|
p5330
I9
sV|CPD-10793|
p5331
I4
sV|BUTYRYL-COA|
p5332
I173
sV|CPD-158|
p5333
I8
sV|CPD-9895|
p5334
I16
sV|CPD-8719|
p5335
I44
sV|CPD-15084|
p5336
I5
sV|Malto-Oligosaccharides|
p5337
I11
sV|OBTUSIFOLIOL|
p5338
I86
sV|2346-TETRAHYDROXYBENZOPHENONE|
p5339
I16
sV|CPD-16969|
p5340
I8
sV|CPD-12906|
p5341
I16
sV|IDP|
p5342
I6
sV|PROPIONATE|
p5343
I74
sV|CPD-16433|
p5344
I6
sV|2-O-ALPHA-MANNOSYL-D-GLYCERATE|
p5345
I1
sV|CPD-15663|
p5346
I10
sV|CPD-125|
p5347
I36
sV|CPD-12557|
p5348
I12
sV|ALGINATE|
p5349
I33
sV|CPD-13031|
p5350
I32
sV|5Z13E-15S-1115-DIHYDROXY-9-OXOPROS|
p5351
I4
sV|PHOSPHORIBOSYL-AMP|
p5352
I18
sV|ATRAZINE|
p5353
I5
sV|Pro-tRNA-Cytidine4|
p5354
I14
sV|CPD-9701|
p5355
I1
sV|CPD-15436|
p5356
I6
sV|CPD-6978|
p5357
I12
sV|CPD-1083|
p5358
I24
sV|CPD-1078|
p5359
I4
sV|CPD-8122|
p5360
I12
sV|CPD-11746|
p5361
I36
sV|CPD-6481|
p5362
I11
sV|CPD-10632|
p5363
I10
sV|CPD-9371|
p5364
I15
sV|PYRIDOXAL|
p5365
I68
sV|CPD-12960|
p5366
I22
sV|CPD-11220|
p5367
I10
sV|CPD-9459|
p5368
I26
sV|3-HYDROXYADIPYL-COA|
p5369
I37
sV|CPD-334|
p5370
I22
sV|CPD-6362|
p5371
I22
sV|CPD-14877|
p5372
I8
sV|Charged-TRP-tRNAs|
p5373
I19
sV|CPD-320|
p5374
I1
sV|DIHYDROXYNAPHTHOATE|
p5375
I19
sV|FRU1P|
p5376
I10
sV|CPD1G-332|
p5377
I1086
sV|CPD-8948|
p5378
I5
sV|CPD-7107|
p5379
I16
sV|CPD-10774|
p5380
I4
sV|m7G5-pppR-mRNAs|
p5381
I4
sV|PHENYL|
p5382
I8
sV|CPD-12212|
p5383
I12
sV|CPD-14426|
p5384
I58
sV|CPD-9699|
p5385
I26
sV|CPD-7392|
p5386
I16
sV|HYDANTOIN-5-PROPIONATE|
p5387
I7
sV|UDP-N-ACETYL-2-AMINO-D-GLUCURONATE|
p5388
I8
sV|CPD0-2501|
p5389
I2
sV|CPD-14524|
p5390
I30
sV|CPD-16620|
p5391
I38
sV|12-BIS-O-SINAPOYL-BETA-D-GLUCOSIDE|
p5392
I4
sV|CPD-505|
p5393
I40
sV|CPD-255|
p5394
I2
sV|UDP-MANNACA|
p5395
I5
sV|CPD-13314|
p5396
I2
sV|CMP|
p5397
I206
sV|OH-MYRISTOYL|
p5398
I15
sV|CPD-10868|
p5399
I6
sV|DIOXINDOLE-3-ACETATE|
p5400
I20
sV|CPD-6959|
p5401
I1
sV|CPD-9771|
p5402
I16
sV|HYDROXY-ACYL-COA|
p5403
I15
sV|10-HYDROXYDECANOATE|
p5404
I3
sV|CPD-15417|
p5405
I7
sV|THYMIDINE|
p5406
I6
sV|CPD-11469|
p5407
I10
sV|CPD-4619|
p5408
I5
sV|LICODIONE|
p5409
I6
sV|3-oxo-dodecanoyl-ACPs|
p5410
I121
sV|CPD-12383|
p5411
I18
sV|CPD-12352|
p5412
I6
sV|a-poly-gamma-glutamylcysteine-beta-alani|
p5413
I2
sV|CPD-8682|
p5414
I4
sV|CPD-14894|
p5415
I14
sV|Corrinoid-Fe-S-proteins|
p5416
I26
sV|CPD-13540|
p5417
I8
sV|L-Amino-Acids|
p5418
I37
sV|CPD-409|
p5419
I12
sV|CPD-14911|
p5420
I9
sV|CPD-111|
p5421
I16
sV|LEU|
p5422
I49
sV|TROPINONE|
p5423
I42
sV|CPD-9757|
p5424
I13
sV|CPD-4205|
p5425
I30
sV|LUTEOLIN-7-O-BETA-D-GLUCOSIDE|
p5426
I6
sV|CPD-12087|
p5427
I18
sV|CPD0-2463|
p5428
I14
sV|CPD-11019|
p5429
I16
sV|CPD-14901|
p5430
I18
sV|13-HYDROXY-MAGNESIUM-PROTOPORP|
p5431
I54
sV|CPD-12331|
p5432
I3
sV|CPD-11456|
p5433
I10
sV|S-LACTOYL-GLUTATHIONE|
p5434
I4
sV|cis-delta5-lignoceroyl-ACPs|
p5435
I362
sV|CPD-14856|
p5436
I195
sV|CPD-14273|
p5437
I30
sV|CPD-17049|
p5438
I16
sV|CAFFEOYLSHIKIMATE|
p5439
I51
sV|PUTRESCINE|
p5440
I42
sV|CPD-14295|
p5441
I6
sV|cis-cis-D15-27-3-oxo-C46-2-ACPs|
p5442
I362
sV|CPD-693|
p5443
I9
sV|cis-21-CP-39-keto-40-Me-C60-ACPs|
p5444
I362
sV|cis-cis-D5-17-C36-2-ACPs|
p5445
I362
sV|SO3|
p5446
I96
sV|CPDQT-433|
p5447
I18
sV|CPD-7408|
p5448
I8
sV|D-LACTOYL-COA|
p5449
I16
sV|CPD-16579|
p5450
I1
sV|CPD-17076|
p5451
I10
sV|2-COUMARATE|
p5452
I8
sV|MALEATE|
p5453
I39
sV|CPD1F-97|
p5454
I16
sV|CPD-4622|
p5455
I6
sV|CPD-12374|
p5456
I10
sV|CPD-12051|
p5457
I32
sV|Core2|
p5458
I8
sV|GERANYL-PP|
p5459
I257
sV|CIS-DELTA3-ENOYL-COA|
p5460
I6
sV|R-CANADINE|
p5461
I1
sV|DCDP|
p5462
I113
sV|CPD-16454|
p5463
I8
sV|SQUALENE|
p5464
I57
sV|CPD-14360|
p5465
I28
sV|N-5S-5-AMINO-5-CARBOXYPENTANOYL-L-CY|
p5466
I2
sV|CPD1A0-6123|
p5467
I12
sV|5-PHOSPHORIBOSYL-5-AMINOIMIDAZOLE|
p5468
I29
sV|CPD-13043|
p5469
I6
sV|CPD-591|
p5470
I28
sV|CYTIDINE|
p5471
I13
sV|CPD-15815|
p5472
I14
sV|CPD-10179|
p5473
I4
sV|Tetradec-2-enoyl-ACPs|
p5474
I116
sV|CPD-8767|
p5475
I9
sV|L-aspartyl-tRNAAsn|
p5476
I4
sV|FORMYL-COA|
p5477
I34
sV|CPD-10651|
p5478
I1
sV|CPD-4588|
p5479
I12
sV|SHIKIMATE-5P|
p5480
I10
sV|4-CARBOXYBENZALDEHYDE|
p5481
I8
sV|ISOWILLARDIINE|
p5482
I1
sV|nu-Carrageenan|
p5483
I1
sV|CPD1F-138|
p5484
I52
sV|CPD-13820|
p5485
I16
sV|CPD-10077|
p5486
I6
sV|CPD-12160|
p5487
I2
sV|CPD-8664|
p5488
I10
sV|CPD-11241|
p5489
I2
sV|CPD-12421|
p5490
I15
sV|3-Methyl-Saturated-Fatty-Acids|
p5491
I5
sV|C1|
p5492
I18
sV|CPD-11396|
p5493
I22
sV|CPD-15926|
p5494
I19
sV|His-tRNA-2-O-MeAdenosine4|
p5495
I14
sV|CPD-11906|
p5496
I14
sV|Lambda-Carrageenan|
p5497
I1
sV|CPD-11751|
p5498
I16
sV|Pre-tRNA-3-prime-half-molecules|
p5499
I8
sV|CPD-12588|
p5500
I14
sV|CPD-8094|
p5501
I8
sV|CPD-8905|
p5502
I31
sV|CYS-tRNAs|
p5503
I20
sV|CPD-8925|
p5504
I1
sV|CPD-8034|
p5505
I10
sV|CPD-15908|
p5506
I8
sV|CPD-354|
p5507
I1
sV|CPD-5164|
p5508
I28
sV|CPD-679|
p5509
I24
sV|CPD0-2477|
p5510
I4
sV|CPD-13687|
p5511
I4
sV|3S-CITRYL-COA|
p5512
I22
sV|CPD-14938|
p5513
I17
sV|METHYLOXALO-ACETATE|
p5514
I12
sV|2-H-4-G-glutamylamino-butanoyl-BtrI|
p5515
I12
sV|CPD-10333|
p5516
I5
sV|SER-tRNAs|
p5517
I20
sV|CPD-14407|
p5518
I44
sV|Oxo-glutarate-dehydrogenase-lipoyl|
p5519
I8
sV|CPD-15541|
p5520
I22
sV|2-HYDROXY-23-DIHYDRODAIDZEIN|
p5521
I23
sV|Oxidized-cytochromes|
p5522
I5
sV|CPD-15646|
p5523
I3
sV|2-HEXAPRENYL-6-METHOXY-14-BENZOQUINOL|
p5524
I83
sV|CPD-9017|
p5525
I46
sV|CPD-10082|
p5526
I18
sV|CPD-17013|
p5527
I22
sV|Alpha-Amyloses|
p5528
I33
sV|KYNURENATE|
p5529
I13
sV|CPD3DJ-11366|
p5530
I12
sV|CPD-14492|
p5531
I4
sV|CPD-13669|
p5532
I27
sV|Gcv-H|
p5533
I11
sV|LysW-L-ornithine|
p5534
I16
sV|Methylketones|
p5535
I5
sV|MtmC-Proteins|
p5536
I2
sV|CPD-14503|
p5537
I27
sV|CPD-11888|
p5538
I6
sV|CPD-10188|
p5539
I1
sV|CPD-7852|
p5540
I18
sV|GMP|
p5541
I47
sV|CPD-16641|
p5542
I24
sV|1-KESTOTRIOSE|
p5543
I18
sV|CPD-7006|
p5544
I6
sV|CPD-13377|
p5545
I10
sV|CPD-58|
p5546
I8
sV|CPD-11557|
p5547
I5
sV|tRNA-Introns|
p5548
I4
sV|CPD-7978|
p5549
I5
sV|DEACETOXYCEPHALOSPORIN-C|
p5550
I4
sV|5-HYDROXY-TRYPTOPHAN|
p5551
I6
sV|CPD-9918|
p5552
I16
sV|CPD0-1082|
p5553
I21
sV|CPD-479|
p5554
I42
sV|CPDN-385|
p5555
I10
sV|CPD-14565|
p5556
I10
sV|CPD-1137|
p5557
I9
sV|METHYL-MALONYL-COA|
p5558
I124
sV|CPD-14538|
p5559
I2
sV|CPD-12617|
p5560
I8
sV|CPD-9865|
p5561
I30
sV|CPD-4890|
p5562
I9
sV|CPD-6227|
p5563
I28
sV|CPD-8612|
p5564
I38
sV|CPD-16745|
p5565
I3
sV|CPD-12871|
p5566
I2
sV|CPD-9526|
p5567
I7
sV|SINAPALDEHYDE|
p5568
I37
sV|CPD-9738|
p5569
I26
sV|CPD-13469|
p5570
I18
sV|GLN|
p5571
I354
sV|CPD-14825|
p5572
I2
sV|CPD-14256|
p5573
I8
sV|2-AMINOMUCONATE_SEMIALDEHYDE|
p5574
I45
sV|CPD-16845|
p5575
I12
sV|CPD-12399|
p5576
I16
sV|ISOORIENTIN|
p5577
I9
sV|Alpha-lactose|
p5578
I2
sV|R-NICOTINE|
p5579
I15
sV|CPD-12023|
p5580
I1
sV|CPD-13754|
p5581
I28
sV|CPD-7252|
p5582
I15
sV|CPD-7283|
p5583
I28
sV|CPD-11422|
p5584
I4
sV|UDP-L-RHAMNOSE|
p5585
I180
sV|D-XYLONATE|
p5586
I26
sV|STAUROSPORINE|
p5587
I7
sV|CPD-9897|
p5588
I16
sV|CPD-16985|
p5589
I4
sV|ISATIN|
p5590
I12
sV|TRIMETHYLAMINE|
p5591
I8
sV|PROPENE|
p5592
I12
sV|CPD-8834|
p5593
I3
sV|4-TOLUENECARBOXYLATE|
p5594
I6
sV|BIOCHANIN-A|
p5595
I33
sV|Cytochromes-C-Oxidized|
p5596
I87
sV|CPD-15082|
p5597
I10
sV|NORSPERMIDINE|
p5598
I11
sV|CPD-15661|
p5599
I27
sV|CPD-12904|
p5600
I16
sV|CPD1G-107|
p5601
I362
sV|IN-CHAIN-HYDROXY-FATTY-ACID|
p5602
I10
sV|INDOLE_PYRUVATE|
p5603
I68
sV|R-3-hydroxyhexanoyl-ACPs|
p5604
I116
sV|R-3-hydroxybehenoyl-ACPs|
p5605
I362
sV|R-RETICULINE|
p5606
I24
sV|CPD-809|
p5607
I4
sV|CPD-12021|
p5608
I3
sV|N-ACETYL-L-2-AMINO-6-OXO-PIMELATE|
p5609
I16
sV|25-DICHLOROHYDROQUINONE|
p5610
I36
sV|CPD-16765|
p5611
I16
sV|TRANS-D2-ENOYL-ACP|
p5612
I12
sV|CPD-10116|
p5613
I2
sV|CPD-9260|
p5614
I14
sV|Sulfur-Carrier-Proteins-ThiI|
p5615
I12
sV|Sulfo-Aldehydes|
p5616
I8
sV|GLUCOSYL-GLYCOGENIN|
p5617
I6
sV|CO+2|
p5618
I26
sV|CPD-10520|
p5619
I78
sV|CPD-279|
p5620
I18
sV|TAXA-42011-DIEN-5A-OL|
p5621
I36
sV|CPD-7700|
p5622
I1
sV|CPD-9373|
p5623
I12
sV|CPD-13059|
p5624
I33
sV|CPD-5170|
p5625
I28
sV|CAPSORUBIN|
p5626
I2
sV|trans-D18-37-OH-38-Me-C58-1-ACPs|
p5627
I362
sV|FMN|
p5628
I117
sV|DIACETYL|
p5629
I8
sV|L-THYROXINE|
p5630
I111
sV|MALONATE|
p5631
I33
sV|CPD-12708|
p5632
I15
sV|2-METHYL-6-SOLANYL-14-BENZOQUINONE|
p5633
I12
sV|6-O-BETA-D-XYLOPYRANOSYL|
p5634
I30
sV|CARBAMATE|
p5635
I14
sV|CPD-13619|
p5636
I9
sV|CPD-15106|
p5637
I1
sV|CPD-13846|
p5638
I4
sV|CPD-8775|
p5639
I2
sV|CPD-7652|
p5640
I26
sV|CPD-14471|
p5641
I12
sV|CPD-14424|
p5642
I58
sV|CPD-15687|
p5643
I18
sV|CPD-12102|
p5644
I1
sV|CPD-12788|
p5645
I18
sV|INDOLE-3-ACETYL-GLN|
p5646
I6
sV|CPD-14944|
p5647
I34
sV|PORPHOBILINOGEN|
p5648
I16
sV|CPD-257|
p5649
I6
sV|34-DICHLOROANILINE|
p5650
I2
sV|CPD-13699|
p5651
I98
sV|4-HYDROXY-L-PROLINE|
p5652
I7
sV|BERBERINE|
p5653
I4
sV|CPD-9773|
p5654
I24
sV|CPD-15147|
p5655
I24
sV|CPD-16501|
p5656
I6
sV|CPD-12350|
p5657
I3
sV|L-Glutamyl-BtrI-Acyl-Carrier-Prtoeins|
p5658
I12
sV|CPD-13542|
p5659
I16
sV|LovF|
p5660
I12
sV|CPD-8680|
p5661
I3
sV|VibF|
p5662
I18
sV|CROTONYL-COA|
p5663
I238
sV|CRPB-all-trans-Retinal|
p5664
I6
sV|CPD-14892|
p5665
I14
sV|LEU-tRNAs|
p5666
I30
sV|GLUCONATE|
p5667
I70
sV|CPD-14903|
p5668
I18
sV|mu-Carrageenan|
p5669
I1
sV|Quinones|
p5670
I20
sV|FECOSTEROL|
p5671
I8
sV|CPD-12085|
p5672
I27
sV|PYRAZOLIDINE|
p5673
I6
sV|CPD-9577|
p5674
I12
sV|CPD-16886|
p5675
I6
sV|CPD-11450|
p5676
I4
sV|CPD-263|
p5677
I22
sV|Plastoquinols|
p5678
I32
sV|ALA-tRNAs|
p5679
I22
sV|3-SULFOCATECHOL|
p5680
I8
sV|CPD-14297|
p5681
I3
sV|CPD-7157|
p5682
I6
sV|CPD-14854|
p5683
I64
sV|CPD-7231|
p5684
I4
sV|D-BETA-D-HEPTOSE-17-DIPHOSPHATE|
p5685
I8
sV|P-HYDROXY-PHENYLPYRUVATE|
p5686
I95
sV|DOCOSANOATE|
p5687
I14
sV|CPD-11377|
p5688
I4
sV|CPD-9745|
p5689
I9
sV|CPD-10895|
p5690
I16
sV|CPD-10840|
p5691
I8
sV|Xyloglucans-Galactose-3|
p5692
I10
sV|CPD1G-1354|
p5693
I905
sV|4R-Limonene-1-2-epoxides|
p5694
I12
sV|CPD-17070|
p5695
I4
sV|DIPEPTIDES|
p5696
I6
sV|MALONATE-S-ALD|
p5697
I112
sV|TRIPEPTIDES|
p5698
I6
sV|CPD-9923|
p5699
I24
sV|L-GLUTAMATE_GAMMA-SEMIALDEHYDE|
p5700
I105
sV|CPD-8258|
p5701
I2
sV|5-ACETAMIDOVALERATE|
p5702
I10
sV|CPDQT-341|
p5703
I30
sV|tRNAPhe-Containing-4-demethylwyosine-37|
p5704
I12
sV|CPD-10246|
p5705
I1
sV|CPD-12501|
p5706
I5
sV|CPD-14144|
p5707
I7
sV|CPD-13812|
p5708
I2
sV|CPD-16456|
p5709
I6
sV|CPD-16971|
p5710
I8
sV|CPD-13010|
p5711
I33
sV|eEF-2-Histidines|
p5712
I5
sV|CPD-16607|
p5713
I2
sV|26-DICHLORO-P-HYDROQUINONE|
p5714
I18
sV|Methylated-MttC-Proteins|
p5715
I2
sV|CPD0-1108|
p5716
I4
sV|O-phospho-L-seryl-tRNASecs|
p5717
I6
sV|CPD-724|
p5718
I42
sV|CPD-14082|
p5719
I15
sV|12-Hydroxyjasmonate-Sulfates|
p5720
I1
sV|DIAMINONONANOATE|
p5721
I8
sV|CPD-10244|
p5722
I45
sV|DIMETHYL-D-RIBITYL-LUMAZINE|
p5723
I50
sV|4-CYTIDINE-5-DIPHOSPHO-2-C|
p5724
I32
sV|CPD-12805|
p5725
I26
sV|CPD-8666|
p5726
I5
sV|CPD-8232|
p5727
I2
sV|CPD-14359|
p5728
I28
sV|7-METHYLXANTHINE|
p5729
I37
sV|1-PHOSPHATIDYL-1D-MYO-INOSITOL-5-PHOSPHA|
p5730
I29
sV|CPD-13826|
p5731
I8
sV|CPD-10079|
p5732
I18
sV|CPD-12162|
p5733
I2
sV|CPD0-1905|
p5734
I6
sV|CPD-12423|
p5735
I15
sV|2-PYRAZOLINE|
p5736
I6
sV|CPD-702|
p5737
I4
sV|CPD-7026|
p5738
I4
sV|L-ERYTHRO-4-HYDROXY-GLUTAMATE|
p5739
I8
sV|DIHYDRO-DIOH-BENZOATE|
p5740
I4
sV|S-ubi-N-term-specific-UCP-E2-L-cysteine|
p5741
I12
sV|MN+3|
p5742
I4
sV|CPD-15256|
p5743
I4
sV|CPD-14264|
p5744
I8
sV|PROTOPINE|
p5745
I32
sV|CPD-9164|
p5746
I16
sV|MANDELONITRILE|
p5747
I2
sV|DESMOSTEROL-CPD|
p5748
I38
sV|CPD-5166|
p5749
I28
sV|CPD-356|
p5750
I16
sV|CPD-13396|
p5751
I3
sV|CPD-14119|
p5752
I8
sV|CPD-14166|
p5753
I8
sV|CPD-15906|
p5754
I4
sV|VAL|
p5755
I82
sV|CPD-12692|
p5756
I4
sV|CPD-16791|
p5757
I22
sV|CPD-15127|
p5758
I12
sV|CPD-13685|
p5759
I4
sV|CPD66-72|
p5760
I16
sV|CPD-9441|
p5761
I2
sV|Crotonyl-ACPs|
p5762
I132
sV|EPYRIDALDOX|
p5763
I2
sV|CPD-15369|
p5764
I24
sV|CPD-12750|
p5765
I8
sV|Thi-S|
p5766
I24
sV|CPD-15800|
p5767
I16
sV|CPD0-2357|
p5768
I7
sV|25-DIDEHYDRO-D-GLUCONATE|
p5769
I33
sV|CPD-7168|
p5770
I36
sV|All-trans-Retinyl-Esters|
p5771
I34
sV|CPD-8089|
p5772
I40
sV|CPD-13369|
p5773
I10
sV|CPD-7850|
p5774
I27
sV|CPD-6972|
p5775
I24
sV|CPD-16643|
p5776
I24
sV|CPDQT-436|
p5777
I9
sV|CPD-12099|
p5778
I6
sV|GLYCOGENIN|
p5779
I3
sV|CPD-553|
p5780
I4
sV|LUTEOLIN-7-O-NEOHESPERIDOSIDE|
p5781
I2
sV|CPD-13375|
p5782
I25
sV|CPD-8009|
p5783
I11
sV|CPD-8958|
p5784
I6
sV|L-CYSTATHIONINE|
p5785
I38
sV|CPD-1142|
p5786
I5
sV|CPDQT-414|
p5787
I16
sV|STEAROYL-COA|
p5788
I36
sV|cis-delta5-3-oxo-lignoceroyl-ACPs|
p5789
I362
sV|CPD-3617|
p5790
I11
sV|LINOLENOYL-COA|
p5791
I39
sV|CPD-31|
p5792
I14
sV|CPDQT-32|
p5793
I28
sV|Alkanesulfonates|
p5794
I1
sV|N5-METHYLGLUTAMINE|
p5795
I4
sV|CPD-14999|
p5796
I20
sV|CPD-8632|
p5797
I16
sV|CPD-11471|
p5798
I1
sV|PRECURSOR-Z|
p5799
I12
sV|CPD-12397|
p5800
I18
sV|CPD-15250|
p5801
I15
sV|L-CYSTEATE|
p5802
I19
sV|CPD-4743|
p5803
I16
sV|CPD-109|
p5804
I6
sV|DELTA1-PIPERIDEINE-2-CARBOXYLATE|
p5805
I34
sV|CAFFEOYLQUINATE|
p5806
I47
sV|CPD-12902|
p5807
I16
sV|D-galactopyranose|
p5808
I1
sV|METHYL-THMPT|
p5809
I10
sV|Charged-GLN-tRNAs|
p5810
I20
sV|CPD-15667|
p5811
I22
sV|N-ACETYL-NEURAMINATE-9P|
p5812
I8
sV|2-D-THREO-HYDROXY-3-CARBOXY-ISOCAPROATE|
p5813
I22
sV|CMP-KDO|
p5814
I16
sV|Heparan-NAc-Glc|
p5815
I11
sV|CPD-17051|
p5816
I16
sV|ATP|
p5817
I7106
sV|CPD-9462|
p5818
I14
sV|cytidine-32-or-guanosine-34-tRNAs|
p5819
I14
sV|BILIVERDINE|
p5820
I12
sV|CPD-3344|
p5821
I4
sV|CPD0-1027|
p5822
I15
sV|13-DIHYDROXY-N-METHYLACRIDONE|
p5823
I3
sV|Fe2-siderophores|
p5824
I16
sV|CPD-1829|
p5825
I48
sV|CPD-14646|
p5826
I8
sV|Odd-Saturated-Fatty-Acyl-CoA|
p5827
I5
sV|CPD-7496|
p5828
I14
sV|4-HYDROXYBENZALDEHYDE|
p5829
I38
sV|CPD-10114|
p5830
I4
sV|CPD-11860|
p5831
I6
sV|CROTONATE|
p5832
I14
sV|3-HYDROXYBENZOATE|
p5833
I32
sV|N-ACETYL-BETA-D-GLUCOSAMINYL-13-ETCETERA|
p5834
I18
sV|CPD-9939|
p5835
I10
sV|CPD-16747|
p5836
I8
sV|CPD-15432|
p5837
I10
sV|CPD-12005|
p5838
I5
sV|CPD-8693|
p5839
I18
sV|CPD-1074|
p5840
I20
sV|CPD-8655|
p5841
I6
sV|CPD-13759|
p5842
I14
sV|CPD-10216|
p5843
I12
sV|CO-A|
p5844
I7188
sV|2-ACETO-2-HYDROXY-BUTYRATE|
p5845
I48
sV|TETRAHYDROPALMATINE|
p5846
I6
sV|DAPHNIN|
p5847
I2
sV|DIHYDROCLAVAMINATE|
p5848
I14
sV|CPD-7695|
p5849
I51
sV|CPD-9408|
p5850
I72
sV|CPD-16497|
p5851
I10
sV|CPD-15277|
p5852
I16
sV|HYDROXYATRAZINE|
p5853
I6
sV|CPD-277|
p5854
I14
sV|DEOXYINOSINE|
p5855
I10
sV|Apo-FeS-cluster-proteins|
p5856
I9
sV|CPD-14010|
p5857
I24
sV|CPD-13086|
p5858
I20
sV|CPD-9375|
p5859
I12
sV|Dodec-2-enoyl-ACPs|
p5860
I116
sV|CH3-MALONATE-S-ALD|
p5861
I21
sV|EPOXYSQUALENE|
p5862
I220
sV|O-SUCCINYLBENZOATE|
p5863
I24
sV|CPD-2742|
p5864
I134
sV|CPD-14185|
p5865
I10
sV|CPD-16698|
p5866
I15
sV|2-CL-5-OXO-2-5-DIH-FURAN-2-ACETATE|
p5867
I18
sV|L-1-phosphatidyl-inositols|
p5868
I93
sV|CPD-15080|
p5869
I10
sV|CPD-10063|
p5870
I38
sV|CPD-12367|
p5871
I3
sV|56-DIHYDROXYINDOLE-2-CARBOXYLATE|
p5872
I10
sV|DEACETYLCEPHALOSPORIN-C|
p5873
I4
sV|CPD-8013|
p5874
I33
sV|L-ALA-GAMMA-D-GLU-DAP|
p5875
I24
sV|D-Xylopyranose|
p5876
I11
sV|2-HEXAPRENYL-3-METHYL-5-HYDROXY-6-METHOX|
p5877
I78
sV|CPD-15742|
p5878
I8
sV|CPD-9528|
p5879
I14
sV|CPD-4223|
p5880
I6
sV|CPD-11938|
p5881
I16
sV|CPD-9695|
p5882
I6
sV|CPD-14422|
p5883
I28
sV|VERY-LONG-CHAIN-FATTY-ACYL-COA|
p5884
I17
sV|Ubiquinols|
p5885
I153
sV|CPD-9025|
p5886
I24
sV|CPD-15689|
p5887
I18
sV|CPD-14127|
p5888
I54
sV|Thalian-diols|
p5889
I4
sV|5-Methylcytosine-48-tRNAs|
p5890
I14
sV|CPD-645|
p5891
I12
sV|CPD-14946|
p5892
I16
sV|CPD-10348|
p5893
I5
sV|Carboxyadenylated-CysO|
p5894
I6
sV|OCTANOL|
p5895
I8
sV|CPD-251|
p5896
I10
sV|Reduced-cytochromes-c551|
p5897
I3
sV|CPD-12278|
p5898
I30
sV|cis-cis-D13-31-3-hydroxyC50-2-ACPs|
p5899
I362
sV|Chap-ATP-Co-chaperone-SP-2Fe2S-Complex|
p5900
I18
sV|CPD-380|
p5901
I46
sV|CPD-885|
p5902
I10
sV|2-AMINOBENZENESULFONATE|
p5903
I4
sV|CPD-15413|
p5904
I8
sV|CPD-12356|
p5905
I6
sV|CPD-8686|
p5906
I6
sV|ACETYLSERINE|
p5907
I25
sV|CDP-D-GLUCOSE|
p5908
I40
sV|CPD-14517|
p5909
I10
sV|METHENYLTETRAHYDROMETHANOPTERIN|
p5910
I20
sV|CPD-14905|
p5911
I18
sV|CPD-9502|
p5912
I1
sV|CPD-4209|
p5913
I35
sV|CPDQT-40|
p5914
I28
sV|R-3-hydroxy-cis-vaccenoyl-ACPs|
p5915
I8
sV|CPD-6783|
p5916
I14
sV|CPD-15272|
p5917
I2
sV|3-METHYL-1-246-TRIHYDROXYPHENYLBUTAN|
p5918
I16
sV|CPD-62|
p5919
I12
sV|3R-all-trans-3-hydroxyretinol-RBPs|
p5920
I12
sV|S-TETRAHYDROCOLUMBAMINE|
p5921
I30
sV|CPD-8848|
p5922
I2
sV|CPD-15894|
p5923
I8
sV|CPD-16793|
p5924
I22
sV|3-METHYLBENZYLSUCCINYL-COA|
p5925
I6
sV|NIACINE|
p5926
I133
sV|DIETHYLTHIOPHOSPHATE|
p5927
I2
sV|CPD-10512|
p5928
I24
sV|CPD-6402|
p5929
I4
sV|malonyl-PigH|
p5930
I22
sV|CPD-10842|
p5931
I8
sV|CPD-12403|
p5932
I16
sV|CPD-9925|
p5933
I24
sV|CPD-17072|
p5934
I6
sV|PENTAHYDROXYCYCLOHEXANONE|
p5935
I4
sV|BENZENE-NO2|
p5936
I1
sV|CPD-12378|
p5937
I10
sV|CPDQT-343|
p5938
I18
sV|CPD-13187|
p5939
I2
sV|CPD-14961|
p5940
I6
sV|PigG|
p5941
I22
sV|CPD-12507|
p5942
I3
sV|CPD-12353|
p5943
I10
sV|VITEXIN|
p5944
I14
sV|UDP-OHMYR-GLUCOSAMINE|
p5945
I10
sV|Alpha-hydroxyphytoceramides|
p5946
I54
sV|CPD-4864|
p5947
I12
sV|CPD66-52|
p5948
I6
sV|CPD66-29|
p5949
I10
sV|CPD-11712|
p5950
I15
sV|CPD-11432|
p5951
I2
sV|CPD-13047|
p5952
I9
sV|OLEATE-CPD|
p5953
I81
sV|DOPAMINE|
p5954
I89
sV|CTP|
p5955
I248
sV|CPD-10231|
p5956
I18
sV|N-ACETYL-D-GLUCOSAMINE-6-P|
p5957
I59
sV|OMEGA-HYDROXY-FATTY-ACID|
p5958
I25
sV|CPD-6722|
p5959
I5
sV|MG+2|
p5960
I36
sV|CPD-15486|
p5961
I24
sV|2-DH-3-DO-D-ARABINONATE|
p5962
I36
sV|CPD-13824|
p5963
I16
sV|CPD-12803|
p5964
I7
sV|CPD-8668|
p5965
I2
sV|CPD-8230|
p5966
I7
sV|CPD-700|
p5967
I76
sV|UTP|
p5968
I102
sV|Charged-HIS-tRNAs|
p5969
I19
sV|cis-cis-D11-29-C48-2-ACPs|
p5970
I362
sV|CPD-17105|
p5971
I4
sV|CPD-12652|
p5972
I3
sV|CPD-9166|
p5973
I16
sV|CPD-11392|
p5974
I2
sV|CPD-11971|
p5975
I8
sV|CPD4FS-8|
p5976
I6
sV|Rifamycin-Cyc-Pentaketide-Acps|
p5977
I24
sV|CPD-8921|
p5978
I12
sV|7-O-ACETYLSALUTARIDINOL|
p5979
I24
sV|CPD-14164|
p5980
I14
sV|CPD-15904|
p5981
I8
sV|CPD-13712|
p5982
I28
sV|CPD-13967|
p5983
I17
sV|CPD-358|
p5984
I19
sV|CPD-5168|
p5985
I28
sV|CPD1F-131|
p5986
I16
sV|O-SINAPOYLGLUCAROLACTONE|
p5987
I2
sV|CPD-15209|
p5988
I2
sV|PHOSPHORIBOSYL-CARBOXY-AMINOIMIDAZOLE|
p5989
I28
sV|CPD-9437|
p5990
I16
sV|GIBBERELLIN|
p5991
I16
sV|CPD0-2121|
p5992
I20
sV|CPD-12390|
p5993
I22
sV|DIHYDRO-THYMINE|
p5994
I4
sV|Lipoyl-Protein-L-Lysine|
p5995
I11
sV|CPD-15642|
p5996
I12
sV|Demethylated-methyl-acceptors|
p5997
I65
sV|CPD-11726|
p5998
I2
sV|trans-20-CP-22-Me-39-keto-40-Me-C61-ACPs|
p5999
I362
sV|CPD-866|
p6000
I28
sV|CPD-12578|
p6001
I21
sV|CPD-3188|
p6002
I34
sV|CPD0-2351|
p6003
I27
sV|CPD-15501|
p6004
I22
sV|Xyloglucan-tetraose|
p6005
I2
sV|CPD-14496|
p6006
I2
sV|CPD-9603|
p6007
I3
sV|CPD-4609|
p6008
I11
sV|CPDQT-434|
p6009
I18
sV|BUTYRIC_ACID|
p6010
I65
sV|CPD-10296|
p6011
I6
sV|3-SULFINYL-PYRUVATE|
p6012
I4
sV|20A-20B-DIHYDROXY-CHOLESTEROL|
p6013
I4
sV|CPD-9144|
p6014
I2
sV|CPD-7856|
p6015
I8
sV|CPD-8730|
p6016
I5
sV|CPD-14469|
p6017
I5
sV|AMINO-ACETONE|
p6018
I10
sV|CPD-7637|
p6019
I32
sV|CPD-13373|
p6020
I10
sV|CPD-551|
p6021
I94
sV|VANILLATE|
p6022
I43
sV|CPD-10750|
p6023
I32
sV|CPD-14822|
p6024
I3
sV|CPD-15254|
p6025
I36
sV|CPD-15995|
p6026
I10
sV|CPDQT-416|
p6027
I30
sV|Thiols|
p6028
I27
sV|CPD-14619|
p6029
I1
sV|3-OH-BENZALDEHYDE|
p6030
I36
sV|BETAINE|
p6031
I30
sV|1-183-2-183-SN-GLYCEROL-PHOSPHOCHOLINE|
p6032
I40
sV|S-Substituted-L-Cysteines|
p6033
I40
sV|CPD-11859|
p6034
I3
sV|Malonate-Decarboxylases-Malonyl-Form|
p6035
I12
sV|Alkenyl-Thiohydroximate-O-Sulfates|
p6036
I3
sV|CPDQT-34|
p6037
I28
sV|Oxidized-Flavoproteins|
p6038
I177
sV|UNKNOWN|
p6039
I61
sV|ANDROSTERONE|
p6040
I2
sV|CPD-11997|
p6041
I12
sV|CPD-7137|
p6042
I17
sV|CPD-13385|
p6043
I9
sV|CPD-12395|
p6044
I18
sV|CPD-8630|
p6045
I4
sV|CPD0-1123|
p6046
I12
sV|Reduced-Flavoproteins|
p6047
I177
sV|7-O-METHYLVITEXIN-2-O-B-L-RHAMNOSIDE|
p6048
I3
sV|CPD-698|
p6049
I102
sV|CPD-291|
p6050
I30
sV|Long-Chain-Fatty-Acids|
p6051
I25
sV|CPD-152|
p6052
I30
sV|DELTA3-ISOPENTENYL-PP|
p6053
I176
sV|CPD0-2479|
p6054
I14
sV|CPD-9893|
p6055
I32
sV|CPD-4741|
p6056
I16
sV|CPD-1776|
p6057
I6
sV|CPD-12231|
p6058
I10
sV|MEK|
p6059
I12
sV|CPD-14269|
p6060
I4
sV|LUTEOLIN-7-O-BETA-D-GLUCURONOSYL-1-2|
p6061
I5
sV|CPD-14069|
p6062
I6
sV|CPD0-937|
p6063
I18
sV|CPD-12955|
p6064
I70
sV|CPD-14283|
p6065
I30
sV|4-P-PANTOTHENATE|
p6066
I19
sV|CPD-10169|
p6067
I16
sV|Long-Chain-Acyl-CoAs|
p6068
I63
sV|Cytochromes-C-Reduced|
p6069
I87
sV|CPD-13160|
p6070
I18
sV|CPD-805|
p6071
I2
sV|CPD1G-1534|
p6072
I181
sV|CPD-14633|
p6073
I18
sV|CPD-16954|
p6074
I26
sV|2-HYDROXYISOFLAVANONE|
p6075
I14
sV|N-acyl-sphingosylphosphorylcholine|
p6076
I18
sV|NOREPINEPHRINE|
p6077
I42
sV|CPD-15079|
p6078
I10
sV|CPD-13907|
p6079
I22
sV|CPD-15430|
p6080
I14
sV|3-METHYLSULFINYLPROPYL-GLUCOSINOLATE|
p6081
I33
sV|Long-Chain-Esters|
p6082
I4
sV|OXALACETIC_ACID|
p6083
I692
sV|CPD-17012|
p6084
I22
sV|GDP|
p6085
I226
sV|CPD-8215|
p6086
I6
sV|CPD-10525|
p6087
I2
sV|CPD-14334|
p6088
I12
sV|10-DEACETYL-2-DEBENZOYLBACCATIN-III|
p6089
I24
sV|CPD-16749|
p6090
I4
sV|CPD-9213|
p6091
I10
sV|L-1-PHOSPHATIDYL-GLYCEROL|
p6092
I18
sV|CPD-9009|
p6093
I1
sV|CPD-8774|
p6094
I4
sV|Sulfurylated-ThiI|
p6095
I12
sV|CPD-10210|
p6096
I12
sV|CPD-10280|
p6097
I30
sV|DIHYDROSTREPTOMYCIN-6-PHOSPHATE|
p6098
I36
sV|CPD-9377|
p6099
I10
sV|Cytosine-48-tRNAs|
p6100
I14
sV|CPD-7425|
p6101
I6
sV|CPD-2744|
p6102
I15
sV|CPD-14351|
p6103
I28
sV|CPD-9089|
p6104
I16
sV|CPD-14187|
p6105
I10
sV|CPD-15765|
p6106
I22
sV|CPD-15730|
p6107
I26
sV|Hemoglobins|
p6108
I12
sV|tRNA-with-7-aminomethyl-7-deazaguanine|
p6109
I6
sV|3R-All-trans-3-hydroxyretinal-RBPs|
p6110
I12
sV|L-ORNITHINE|
p6111
I193
sV|TYRAMINE|
p6112
I120
sV|CPD3O-4151|
p6113
I9
sV|DEOXYCHOLATE|
p6114
I7
sV|CPD-12214|
p6115
I18
sV|CPD-14420|
p6116
I28
sV|TAXA-411-DIENE|
p6117
I27
sV|OLEANDOMYCIN|
p6118
I8
sV|CPD-9693|
p6119
I6
sV|36-LACTONE-OF-3-HYDROXYADINYL-COA|
p6120
I7
sV|CPD-7398|
p6121
I2
sV|CPD-7323|
p6122
I6
sV|CPD-12733|
p6123
I4
sV|Cytidine4-tRNAGly-GCC|
p6124
I14
sV|CPD-643|
p6125
I24
sV|CPD-14125|
p6126
I83
sV|MET|
p6127
I260
sV|CPD-253|
p6128
I4
sV|1-O-GALLOYL-BETA-D-GLUCOSE|
p6129
I76
sV|CPD-13695|
p6130
I98
sV|L-RIBULOSE|
p6131
I4
sV|Menaquinols|
p6132
I87
sV|CPD-8746|
p6133
I4
sV|CPD-16666|
p6134
I2
sV|CPD-13455|
p6135
I3
sV|CHLOROPHYLLIDE-A|
p6136
I68
sV|Secondary-Alcohols|
p6137
I10
sV|CPD-15077|
p6138
I15
sV|CPD-12354|
p6139
I10
sV|CPD-8684|
p6140
I3
sV|Charged-LEU-tRNAs|
p6141
I30
sV|VibB|
p6142
I18
sV|CPD-13247|
p6143
I16
sV|Dioxindole-3-Acetyl-3-O-hexoses|
p6144
I4
sV|CPD-8259|
p6145
I20
sV|CPDMETA-13642|
p6146
I10
sV|CPD-9500|
p6147
I2
sV|CPD-35|
p6148
I6
sV|CPD-60|
p6149
I78
sV|CPD-14907|
p6150
I45
sV|CPDQT-30|
p6151
I36
sV|LYSO-ORNITHINE-LIPIDS|
p6152
I2
sV|Aldehydes|
p6153
I11
sV|CPD-9960|
p6154
I8
sV|CPD-8011|
p6155
I11
sV|CPD-7158|
p6156
I28
sV|CPD-12417|
p6157
I11
sV|CONIFERYL-ALCOHOL|
p6158
I34
sV|CPD-16888|
p6159
I3
sV|CPD1F-431|
p6160
I10
sV|3-KETOBUTYRATE|
p6161
I97
sV|CPD-11410|
p6162
I14
sV|CPD-10510|
p6163
I128
sV|SULFOACETALDEHYDE|
p6164
I30
sV|CPD-7260|
p6165
I2
sV|CPD-14786|
p6166
I2
sV|CPD-8651|
p6167
I30
sV|L-DEHYDRO-ASCORBATE|
p6168
I69
sV|6-Phosphogluco-Amylopectins|
p6169
I24
sV|Pi|
p6170
I5473
sV|CPD-10844|
p6171
I7
sV|CPD-12401|
p6172
I16
sV|CPD-4261|
p6173
I12
sV|ACETAMIDE|
p6174
I4
sV|CPD-8844|
p6175
I6
sV|CPD-4862|
p6176
I12
sV|cis-cis-D9-21-C40-2-ACPs|
p6177
I362
sV|CPD0-2365|
p6178
I16
sV|ALPHA-D-MANNOSYL-3-PHOSPHOGLYCERATE|
p6179
I2
sV|VITEXIN-2-O-BETA-D-GLUCOSIDE|
p6180
I3
sV|3-HYDROXY-L-KYNURENINE|
p6181
I47
sV|CPD-16670|
p6182
I14
sV|CAPSANTHIN|
p6183
I2
sV|CPD-16428|
p6184
I6
sV|cis-cis-D17-35-C54-2-ACPs|
p6185
I362
sV|cis-cis-D9-21-3-hydroxyC40-2-ACPs|
p6186
I362
sV|GLYCERALD|
p6187
I26
sV|ADENOSYLCOBINAMIDE|
p6188
I22
sV|CPD-14967|
p6189
I10
sV|ISOTHIOCYANATES|
p6190
I3
sV|AMMONIA|
p6191
I16
sV|CPD-4462|
p6192
I11
sV|GLUCOSAMINE|
p6193
I28
sV|CPD-16566|
p6194
I8
sV|CPD-14086|
p6195
I4
sV|CPD-8634|
p6196
I24
sV|CPD-728|
p6197
I36
sV|CPD-10237|
p6198
I24
sV|13-BETA-D-XYLANS|
p6199
I1
sV|4-HYDROXY-BUTYRYL-COA|
p6200
I54
sV|CPD-7097|
p6201
I11
sV|L-XYLULOSE-5-P|
p6202
I26
sV|5-METHYLTHIOINOSINE|
p6203
I2
sV|CPD-9985|
p6204
I9
sV|CPD-15779|
p6205
I5
sV|CPD-706|
p6206
I68
sV|CPD-2041|
p6207
I4
sV|CPD-7043|
p6208
I49
sV|CPD-9318|
p6209
I8
sV|CPD-12122|
p6210
I2
sV|CPD-15416|
p6211
I14
sV|421-DEHYDROGEISSOSCHIZINE|
p6212
I34
sV|D-METHYL-MALONYL-COA|
p6213
I177
sV|CPD-8163|
p6214
I27
sV|CPD-10259|
p6215
I6
sV|CPD-13965|
p6216
I28
sV|CPD-15655|
p6217
I44
sV|CPD-15902|
p6218
I8
sV|3R-11-cis-3-hydroxyretinal-RBPs|
p6219
I6
sV|cis-5-enoyl-CoA|
p6220
I4
sV|3-HYDROHYDROXYPHOSPHORYLPYRUVATE|
p6221
I36
sV|CPD-12119|
p6222
I2
sV|K-HEXANOYL-COA|
p6223
I20
sV|CPD-11724|
p6224
I4
sV|CPD-12490|
p6225
I2
sV|BETA-D-FRUCTOSE|
p6226
I83
sV|16-METHOXY-23-DIHYDRO-3-HYDROXYTABERSON|
p6227
I14
sV|CPD-12505|
p6228
I6
sV|CPD-14140|
p6229
I6
sV|3-METHYLBENZYLSUCCINATE|
p6230
I6
sV|CPD-10537|
p6231
I16
sV|PANTETHEINE-P|
p6232
I19
sV|CPD-7117|
p6233
I24
sV|DIHYDROFOLATE|
p6234
I2
sV|CPD-16587|
p6235
I3
sV|TRANS-2-CHLORO-4-CARBOXYMETHYLENEBUT-2-E|
p6236
I22
sV|CPD0-2353|
p6237
I27
sV|CPD-10290|
p6238
I2
sV|2-HYDROXYGLUTARYL-COA|
p6239
I12
sV|CPD-448|
p6240
I20
sV|CPD-12710|
p6241
I5
sV|CPD-8058|
p6242
I3
sV|CPD-7854|
p6243
I12
sV|TRP-tRNAs|
p6244
I19
sV|CPD-16647|
p6245
I40
sV|1-3-7-TRIMETHYLXANTHINE|
p6246
I33
sV|CPD-13371|
p6247
I30
sV|CPD-13324|
p6248
I18
sV|CPD-12208|
p6249
I14
sV|CPD-14238|
p6250
I4
sV|24R-24-METHYLCYCLOARTA-825-DIEN-3-BET|
p6251
I14
sV|PchF|
p6252
I18
sV|CPD-15691|
p6253
I18
sV|CPD-8909|
p6254
I14
sV|CPD-14536|
p6255
I4
sV|L-DELTA1-PYRROLINE_5-CARBOXYLATE|
p6256
I93
sV|CPD-10752|
p6257
I10
sV|CPD-9160|
p6258
I16
sV|CPD-15997|
p6259
I10
sV|SER|
p6260
I293
sV|CPD-13543|
p6261
I8
sV|3Z-PHYCOERYTHROBILIN|
p6262
I2
sV|110-DIHYDRO-110-DIHYDROXYFLUOREN-9-ONE|
p6263
I12
sV|CPD-1302|
p6264
I22
sV|CPDQT-36|
p6265
I28
sV|CPD-9789|
p6266
I10
sV|Trans-D2-hexacos-2-enoyl-ACPs|
p6267
I376
sV|CPD1G-130|
p6268
I2
sV|GLYCOCHOLIC_ACID|
p6269
I34
sV|3-HEXAPRENYL-4-HYDROXYBENZOATE|
p6270
I24
sV|CPD-6998|
p6271
I2
sV|CPD-8716|
p6272
I10
sV|CPD-9412|
p6273
I16
sV|CPD-12393|
p6274
I30
sV|CPD-7963|
p6275
I15
sV|CPD-16816|
p6276
I5
sV|Small-peptides|
p6277
I12
sV|CPD-11999|
p6278
I6
sV|CPD-7139|
p6279
I17
sV|ITP|
p6280
I6
sV|CPD-1128|
p6281
I6
sV|THIAZOL-YL-INDOLE|
p6282
I9
sV|CPD-8758|
p6283
I5
sV|Odd-Straight-Chain-234-Sat-FALD|
p6284
I10
sV|CPD-105|
p6285
I5
sV|CPDQT-262|
p6286
I16
sV|CPD-3186|
p6287
I64
sV|CPDQT-299|
p6288
I8
sV|CPD-14494|
p6289
I4
sV|CPD-4211|
p6290
I287
sV|CPD-12957|
p6291
I30
sV|CPD-14281|
p6292
I30
sV|CPD-807|
p6293
I2
sV|CPD-14844|
p6294
I1
sV|CPD-13166|
p6295
I22
sV|CPD-14042|
p6296
I12
sV|5-METHOXYFURANOCOUMARIN|
p6297
I4
sV|CPD-14349|
p6298
I28
sV|CPD-14631|
p6299
I18
sV|CHONDROITIN-46-DISULFATE|
p6300
I4
sV|5-Methylcytosine-49-tRNAs|
p6301
I14
sV|PALMITATE|
p6302
I121
sV|Octanoylated-domains|
p6303
I8
sV|CPD-16541|
p6304
I16
sV|CPD-9460|
p6305
I21
sV|CPD-8785|
p6306
I12
sV|CITRATE-LYASE|
p6307
I14
sV|ALPHA-METHYL-5-ALPHA-ERGOSTA|
p6308
I68
sV|CPD-9211|
p6309
I5
sV|CPD-15467|
p6310
I6
sV|CPD-13901|
p6311
I14
sV|CPD-8618|
p6312
I38
sV|4-hydroxy-2-1H-quinolone|
p6313
I2
sV|Core-Protein-L-Ser-Xyl|
p6314
I6
sV|CPD-14429|
p6315
I2
sV|PELARGONIDIN-3-GLUCOSIDE-CMPD|
p6316
I48
sV|CPD-6483|
p6317
I3
sV|2-AMINOBENZOYL-COA|
p6318
I36
sV|CPD-288|
p6319
I2
sV|CPD-8892|
p6320
I30
sV|CPD-14979|
p6321
I12
sV|4-HYDROXYPHENYLACETATE|
p6322
I34
sV|CPD-13028|
p6323
I70
sV|CPD-12968|
p6324
I18
sV|25-DDOL|
p6325
I20
sV|CPD-12420|
p6326
I15
sV|CPD0-1110|
p6327
I2
sV|BENZYL-DESULFOGLUCOSINOLATE|
p6328
I18
sV|HIS|
p6329
I58
sV|CPD-10274|
p6330
I12
sV|CPD-13946|
p6331
I8
sV|CPD-10229|
p6332
I12
sV|N-ACETYL-ETCETERA-GALACTOSAMINYL-R|
p6333
I4
sV|CPD-8672|
p6334
I8
sV|CPD-7214|
p6335
I17
sV|CPD-703|
p6336
I4
sV|CPD-16016|
p6337
I8
sV|ETR-Quinones|
p6338
I88
sV|CPD0-935|
p6339
I18
sV|CPD-15732|
p6340
I26
sV|cis-cis-D5-23-3-hydroxyC42-2-ACPs|
p6341
I362
sV|CPD-15266|
p6342
I15
sV|CPD-1107|
p6343
I90
sV|Even-Straight-Chain-234-Sat-FA|
p6344
I5
sV|CPD-10460|
p6345
I11
sV|NARINGENIN-CMPD|
p6346
I118
sV|CPD-19|
p6347
I20
sV|CPD-513|
p6348
I38
sV|CPD-9524|
p6349
I21
sV|CPD-11674|
p6350
I6
sV|CPD-9959|
p6351
I12
sV|tRNA-Containing-N2-dimethylguanine-26|
p6352
I14
sV|CPD-641|
p6353
I26
sV|CPD-342|
p6354
I4
sV|NEUROSPORENE|
p6355
I19
sV|CPD-13708|
p6356
I28
sV|CPD-9422|
p6357
I7
sV|CPD-14942|
p6358
I51
sV|CPD-14123|
p6359
I56
sV|DIETHYLAMINE|
p6360
I10
sV|CPD-13697|
p6361
I98
sV|CLAVAMINATE|
p6362
I14
sV|CPD-208|
p6363
I62
sV|CPD-1099|
p6364
I45
sV|CPD-1070|
p6365
I20
sV|3-oxo-C86-trans-methoxy-mycolate-pks13|
p6366
I362
sV|CPD-8711|
p6367
I10
sV|CPD-8744|
p6368
I4
sV|CPD-12321|
p6369
I24
sV|CPD-881|
p6370
I22
sV|N5-Formyl-THF-Glu-N|
p6371
I39
sV|3-oxo-cerotoyl-ACPs|
p6372
I376
sV|OCTAPRENYL-METHYL-OH-METHOXY-BENZQ|
p6373
I30
sV|CPD-4611|
p6374
I5
sV|CD-2S-SP-Complex|
p6375
I18
sV|BENZOYLSUCCINYL-COA|
p6376
I10
sV|CPD-37|
p6377
I30
sV|CPD-514|
p6378
I40
sV|CPD-9962|
p6379
I8
sV|CPD-8184|
p6380
I3
sV|CPD-7070|
p6381
I20
sV|CPD-14324|
p6382
I18
sV|CPD-11776|
p6383
I6
sV|CPD66-76|
p6384
I16
sV|345-TRIHYDROXY-367-TRIMETHOXYFLAVO|
p6385
I78
sV|CPD-8046|
p6386
I9
sV|CPD-481|
p6387
I6
sV|ORCINOL-CPD|
p6388
I4
sV|Octadec-2-enoyl-ACPs|
p6389
I18
sV|CPD1F-462|
p6390
I10
sV|D-ERYTHRO-IMIDAZOLE-GLYCEROL-P|
p6391
I18
sV|INDOLE_ACETATE_AUXIN|
p6392
I232
sV|CPD-8653|
p6393
I22
sV|CPD-11412|
p6394
I14
sV|CPD-928|
p6395
I18
sV|CPD-10846|
p6396
I5
sV|2-OH-beta-keto-Tyr-S-NovH|
p6397
I8
sV|CPD-10044|
p6398
I26
sV|CPD-7015|
p6399
I10
sV|Long-Chain-Acyl-ACPs|
p6400
I5
sV|CPD-8846|
p6401
I1
sV|CPD-7244|
p6402
I12
sV|S-1-PHENYLETHANOL|
p6403
I8
sV|CPD-606|
p6404
I21
sV|CPD-9779|
p6405
I16
sV|CPD-13453|
p6406
I1
sV|CPD-16613|
p6407
I6
sV|OH-HEXANOYL-COA|
p6408
I20
sV|CPD-10032|
p6409
I13
sV|ACRYLYL-COA|
p6410
I92
sV|CPD66-56|
p6411
I10
sV|MORPHINONE|
p6412
I24
sV|CPD-14965|
p6413
I34
sV|CPD-16900|
p6414
I2
sV|Citronellols|
p6415
I3
sV|METHYLARSONATE|
p6416
I12
sV|CPD-16560|
p6417
I8
sV|2-Octenoyl-ACPs|
p6418
I116
sV|CPD-15675|
p6419
I22
sV|CPD-12521|
p6420
I9
sV|CPD-3923|
p6421
I12
sV|CPD-12856|
p6422
I6
sV|CPD-8646|
p6423
I38
sV|PROTEIN-LIPOYLLYSINE|
p6424
I12
sV|CPD-869|
p6425
I28
sV|CPD-704|
p6426
I3
sV|CPD-12429|
p6427
I1
sV|Chitosan|
p6428
I5
sV|CPD-15158|
p6429
I2
sV|CPD-12025|
p6430
I10
sV|CPD8J2-3|
p6431
I2
sV|CPD-8161|
p6432
I54
sV|CPD-12656|
p6433
I10
sV|CPD-6964|
p6434
I2
sV|QUININE|
p6435
I3
sV|CPD-15415|
p6436
I14
sV|CPD-11975|
p6437
I10
sV|KDO-LIPID-IVA|
p6438
I2
sV|BISOHMYR-GLUCOSAMINYL-1P|
p6439
I10
sV|Chondroitin-N-acetyl-galactosamines|
p6440
I8
sV|CPD-14168|
p6441
I8
sV|CPD-15677|
p6442
I22
sV|CPD-11169|
p6443
I16
sV|Hepta-oxo-hexadecanoyl-ACPs|
p6444
I24
sV|CPD-12674|
p6445
I14
sV|CPD-12974|
p6446
I9
sV|CPD0-881|
p6447
I18
sV|RETINOATE|
p6448
I5
sV|CPD-15318|
p6449
I2
sV|CPD-3184|
p6450
I17
sV|CPD-862|
p6451
I9
sV|CPD-14142|
p6452
I4
sV|CPD-14193|
p6453
I12
sV|Ubiquinones|
p6454
I153
sV|CPD-8087|
p6455
I40
sV|WATER|
p6456
I32153
sV|CPD-10740|
p6457
I14
sV|CPD-11880|
p6458
I14
sV|17-O-DEACETYLVINDOLINE|
p6459
I14
sV|CPD-9148|
p6460
I16
sV|ECDYSONE|
p6461
I37
sV|CPD-1006|
p6462
I8
sV|CPD-10576|
p6463
I6
sV|THI5|
p6464
I8
sV|CPD-1961|
p6465
I2
sV|Reduced-CycA1-cytochromes|
p6466
I10
sV|CPD-7870|
p6467
I4
sV|cis-delta9-montanoyl-ACPs|
p6468
I362
sV|CPD-15258|
p6469
I5
sV|CPD-10754|
p6470
I10
sV|CPDQT-412|
p6471
I18
sV|ARACHIDONIC_ACID|
p6472
I58
sV|CPD-577|
p6473
I42
sV|CPD-10615|
p6474
I2
sV|CPD-9162|
p6475
I16
sV|DAMP|
p6476
I10
sV|CYANURIC-ACID|
p6477
I8
sV|CPD-9907|
p6478
I33
sV|Polysaccharides|
p6479
I2
sV|CPDQT-38|
p6480
I28
sV|XANTHURENATE|
p6481
I13
sV|PREPHENATE|
p6482
I55
sV|CPD1G-252|
p6483
I362
sV|CPD-10626|
p6484
I6
sV|CPD-9442|
p6485
I4
sV|CPD-12391|
p6486
I22
sV|CPD-12366|
p6487
I6
sV|CPD-8961|
p6488
I6
sV|CPD-460|
p6489
I6
sV|CPD-14888|
p6490
I78
sV|CPD-15743|
p6491
I3
sV|CPD-9846|
p6492
I3
sV|CPD-4745|
p6493
I8
sV|CPD-9547|
p6494
I2
sV|CPD-5661|
p6495
I4
sV|yW-86|
p6496
I6
sV|CPD-107|
p6497
I51
sV|2-CHLOROMALEYLACETATE|
p6498
I40
sV|QUINOLINATE|
p6499
I52
sV|AMMONIUM|
p6500
I1421
sV|CPD-14443|
p6501
I56
sV|2-KETO-ISOVALERATE|
p6502
I69
sV|CPD-15505|
p6503
I22
sV|CPD-14846|
p6504
I8
sV|INOSITOL-1-4-BISPHOSPHATE|
p6505
I4
sV|CPD-14768|
p6506
I10
sV|B-KETOACYL-ACP|
p6507
I8
sV|CPD-801|
p6508
I1
sV|CPD-12029|
p6509
I32
sV|CPD0-1445|
p6510
I6
sV|CPD-16407|
p6511
I8
sV|Very-long-Chain-234-Saturated-acyl-CoAs|
p6512
I6
sV|CPD-13164|
p6513
I18
sV|CPD-6954|
p6514
I6
sV|CPD-15287|
p6515
I2
sV|CPD-14275|
p6516
I30
sV|CPD-10596|
p6517
I5
sV|2-PG|
p6518
I442
sV|CPD-9469|
p6519
I14
sV|34-DHB-AsbD-Proteins|
p6520
I36
sV|CPD-11866|
p6521
I14
sV|DOPAQUINONE|
p6522
I18
sV|CPD-9217|
p6523
I10
sV|LysW-L-glutamate|
p6524
I16
sV|ACETYL-ETCETERA-L-ASPARAGINE|
p6525
I2
sV|QUINATE|
p6526
I51
sV|CPD-11479|
p6527
I27
sV|DIHYDROPTERIN-CH2OH-PP|
p6528
I16
sV|CPD-14615|
p6529
I32
sV|CPD-638|
p6530
I10
sV|R-3-hydroxystearoyl-ACPs|
p6531
I18
sV|CPD-9826|
p6532
I6
sV|Cytosine-49-tRNAs|
p6533
I14
sV|CPD-7642|
p6534
I32
sV|CPD-7639|
p6535
I32
sV|CPD-16440|
p6536
I24
sV|GXGG-Xyloglucans|
p6537
I10
sV|CPD-10638|
p6538
I16
sV|CPD-12152|
p6539
I6
sV|S-COCLAURINE|
p6540
I28
sV|CPD-4721|
p6541
I16
sV|CPD-14735|
p6542
I6
sV|CPD-14742|
p6543
I6
sV|FRUCTOSE-6P|
p6544
I619
sV|CPD-10272|
p6545
I12
sV|VIOLACEIN|
p6546
I9
sV|CPD-2748|
p6547
I48
sV|17-O-ACETYLNORAJMALINE|
p6548
I51
sV|m7G5-pppRm-mRNAs|
p6549
I2
sV|Chap-ADP-apo-SP-Complex|
p6550
I18
sV|GAMMA-BUTYROBETAINE|
p6551
I10
sV|CPD-11963|
p6552
I14
sV|Mycothiol-mycoredoxin-mixed-disulfides|
p6553
I6
sV|Alpha-omega-dicarboxylates|
p6554
I5
sV|CPD-13834|
p6555
I15
sV|CPD-10065|
p6556
I26
sV|UDP-L-ARA4-FORMYL-N|
p6557
I10
sV|CPD-8670|
p6558
I8
sV|CPD0-933|
p6559
I18
sV|CPD-12951|
p6560
I30
sV|CPD-9322|
p6561
I4
sV|CPD-15264|
p6562
I12
sV|Charged-LYS-tRNAs|
p6563
I19
sV|CPD-9474|
p6564
I2
sV|CPD-15961|
p6565
I18
sV|3-OXO-DEOXYCHOLYL-COA|
p6566
I14
sV|CPD-7014|
p6567
I10
sV|CPD-17|
p6568
I20
sV|CPD-552|
p6569
I8
sV|3OH-4P-OH-ALPHA-KETOBUTYRATE|
p6570
I14
sV|3-INDOLEGLYOXAL|
p6571
I36
sV|ACRYLATE|
p6572
I10
sV|cis-cis-D15-33-3-hydroxyC52-2-ACPs|
p6573
I362
sV|Unsulfurated-Sulfur-Acceptors|
p6574
I20
sV|CPD-9424|
p6575
I28
sV|CPD-616|
p6576
I6
sV|RPB-Retinol|
p6577
I22
sV|CPD-13691|
p6578
I64
sV|VINORINE|
p6579
I34
sV|Apo-Rhodopsin-Rh1|
p6580
I6
sV|CPD-15656|
p6581
I44
sV|CPD-711|
p6582
I42
sV|CPD-13248|
p6583
I16
sV|CPD-883|
p6584
I6
sV|cis-delta19-3-oxo-C38-ACPs|
p6585
I362
sV|CPD-8742|
p6586
I72
sV|BERBAMUNINE|
p6587
I1
sV|5-AMINOPENTANAMIDE|
p6588
I8
sV|CPD-14544|
p6589
I10
sV|CPD-14511|
p6590
I7
sV|CPD-4613|
p6591
I5
sV|4-IMIDAZOLONE-5-PROPIONATE|
p6592
I59
sV|CPD-15073|
p6593
I24
sV|CPDQT-424|
p6594
I13
sV|tRNA-Adenosines-37|
p6595
I4
sV|GERANIAL|
p6596
I40
sV|CPD-7072|
p6597
I6
sV|CPD-9154|
p6598
I8
sV|trans-delta2-behenoyl-ACPs|
p6599
I543
sV|BETA-D-XYLOSE|
p6600
I2
sV|NDP-26-dideoxy-L-erythro-4-hexulose|
p6601
I30
sV|PHOSPHORYL-ETHANOLAMINE|
p6602
I52
sV|CPD-14562|
p6603
I8
sV|CYTOSINE|
p6604
I3
sV|Glucuronoxylans|
p6605
I2
sV|CPD-9518|
p6606
I10
sV|CPD-8186|
p6607
I40
sV|CPD-9269|
p6608
I12
sV|CPD-8942|
p6609
I4
sV|CPD-13720|
p6610
I8
sV|CPD-1105|
p6611
I36
sV|CPD-3607|
p6612
I6
sV|CPD-12349|
p6613
I10
sV|GalNAc-chondroitin-dermatan|
p6614
I8
sV|CPD-11414|
p6615
I4
sV|CPD-10514|
p6616
I46
sV|Oxidized-Plastocyanins|
p6617
I14
sV|CPD-10848|
p6618
I10
sV|CPD-12405|
p6619
I16
sV|CPD-926|
p6620
I2
sV|Citronellals|
p6621
I6
sV|Castasterone-Sulfates|
p6622
I5
sV|CPD-124|
p6623
I45
sV|L-LACTATE|
p6624
I79
sV|CPD-171|
p6625
I70
sV|cis-delta21-3-oxo-C40-ACPs|
p6626
I362
sV|CPD-7145|
p6627
I8
sV|CPD-16424|
p6628
I14
sV|CPD-11449|
p6629
I8
sV|CPD-10866|
p6630
I3
sV|CPD-2002|
p6631
I6
sV|GLUCOSAMINYL-13-N-ETCETERA-GALACTOSAMINY|
p6632
I4
sV|CPD-13451|
p6633
I2
sV|CPD-16611|
p6634
I4
sV|CPD66-54|
p6635
I2
sV|CPD66-23|
p6636
I10
sV|DIMETHYLAMINE|
p6637
I6
sV|ADENOSINE|
p6638
I43
sV|Reduced-Rubredoxins|
p6639
I8
sV|CPD-16906|
p6640
I12
sV|Acceptor|
p6641
I5073
sV|MYRICETIN|
p6642
I75
sV|S-ubiquitinyl-UAP-E1-L-cysteine|
p6643
I18
sV|CPD-8999|
p6644
I12
sV|CPD-9981|
p6645
I36
sV|CPD-7093|
p6646
I6
sV|CPD-12523|
p6647
I1
sV|CPD-12060|
p6648
I32
sV|CPD-17069|
p6649
I4
sV|TREHALOSE|
p6650
I1840
sV|CPD-3629|
p6651
I10
sV|CPD-3921|
p6652
I6
sV|D-glucopyranose-6-phosphate|
p6653
I106
sV|CPD-16924|
p6654
I6
sV|CPD-9711|
p6655
I1
sV|Alpha-6-alpha-14-glucans|
p6656
I44
sV|CPD-15420|
p6657
I14
sV|CPD8J2-1|
p6658
I4
sV|CPD-12015|
p6659
I4
sV|CPD-16559|
p6660
I8
sV|CPD-15408|
p6661
I3
sV|CPD-15473|
p6662
I8
sV|ACETYL-D-GLUCOSAMINYLDIPHOSPHO-UNDECAPRE|
p6663
I36
sV|CPD-16678|
p6664
I16
sV|DIVINYL-PROTOCHLOROPHYLLIDE-A|
p6665
I54
sV|ALDOSTERONE|
p6666
I3
sV|MANNOSE|
p6667
I1
sV|DUTP|
p6668
I108
sV|CPD-10042|
p6669
I65
sV|CPD-13098|
p6670
I28
sV|CPD-9305|
p6671
I4
sV|CPD-10585|
p6672
I6
sV|CPD-12676|
p6673
I28
sV|3Z-PHYCOCYANOBILIN|
p6674
I1
sV|2-2-N-linked-Glycan|
p6675
I18
sV|CPD-15648|
p6676
I1
sV|CPD-12972|
p6677
I18
sV|3-DEMETHYLSTAUROSPORINE|
p6678
I14
sV|CPD-365|
p6679
I8
sV|SORBITOL|
p6680
I22
sV|2-METHYLPROPANAL-OXIME|
p6681
I12
sV|CPD-14863|
p6682
I78
sV|CPD-7609|
p6683
I14
sV|cis-cis-D19-31-3-hydroxyC50-2-ACPs|
p6684
I362
sV|CPD-14191|
p6685
I12
sV|N-FORMIMINO-L-GLUTAMATE|
p6686
I31
sV|CPD-4568|
p6687
I76
sV|CPD-8081|
p6688
I54
sV|CPD-499|
p6689
I38
sV|CPD-8654|
p6690
I14
sV|CPD-444|
p6691
I11
sV|CPD-3736|
p6692
I2
sV|CPD-662|
p6693
I24
sV|CPD-14100|
p6694
I20
sV|CPD-9055|
p6695
I6
sV|CPD-7858|
p6696
I7
sV|ALPHA-D-GALACTOSYL-ETCETERA-GLUCOSAMINYL|
p6697
I9
sV|CPD-678|
p6698
I8
sV|1-ACYL-2-S-12-HYDROXYOLEOYL-SN-GLYCE|
p6699
I1
sV|CPD-229|
p6700
I10
sV|CPD-10570|
p6701
I6
sV|CPD-15370|
p6702
I24
sV|CAFFEOYL-COA|
p6703
I180
sV|CPD-1004|
p6704
I6
sV|CPD-659|
p6705
I12
sV|CPD-14824|
p6706
I4
sV|PHOSPHORIBOSYL-ATP|
p6707
I18
sV|CPD-15993|
p6708
I6
sV|GDP-MANNOSE|
p6709
I158
sV|D-ALA-D-ALA|
p6710
I32
sV|CPD-16699|
p6711
I5
sV|CPD-1789|
p6712
I2
sV|CPD-8167|
p6713
I54
sV|CPD-12654|
p6714
I3
sV|CPD-12681|
p6715
I28
sV|CPD-3441|
p6716
I6
sV|Ecdysteroids|
p6717
I8
sV|INDOLE_ACETALDEHYDE|
p6718
I71
sV|CPD-8633|
p6719
I24
sV|4-HYDROXY-3-INDOLYLMETHYL-GLUCOSINOLATE|
p6720
I44
sV|CPD-8709|
p6721
I10
sV|Rifamycin-Tetraketide-Acps|
p6722
I24
sV|CPD-14258|
p6723
I8
sV|CPD-15175|
p6724
I2
sV|CPD-6994|
p6725
I68
sV|SINAPYL-ALCOHOL|
p6726
I17
sV|5-HYDROXYINDOLE_ACETALDEHYDE|
p6727
I24
sV|CPD-12496|
p6728
I60
sV|CPD-13255|
p6729
I7
sV|CH33ADO|
p6730
I70
sV|CPD-12364|
p6731
I12
sV|CPD-6801|
p6732
I10
sV|CPD-8694|
p6733
I12
sV|CPD-12135|
p6734
I12
sV|Cellular-Retinol-Binding-Proteins|
p6735
I42
sV|CPD-466|
p6736
I7
sV|CPD-4945|
p6737
I11
sV|3-P-SERINE|
p6738
I13
sV|CPD-101|
p6739
I8
sV|2-O-MeCyt32-or-2-O-MeGuan-34-tRNAs|
p6740
I14
sV|CPDQT-295|
p6741
I8
sV|STERCULATE|
p6742
I1
sV|CPD-14267|
p6743
I4
sV|BENZALDEHYDE|
p6744
I76
sV|trans-D2-cis-cis-D19-31-C50-3-ACPs|
p6745
I362
sV|CPD-16762|
p6746
I2
sV|CPD-14498|
p6747
I6
sV|2K-ADIPATE|
p6748
I110
sV|CPD-14840|
p6749
I4
sV|CPD-190|
p6750
I28
sV|CPD-14980|
p6751
I12
sV|Mannan|
p6752
I12
sV|cis-delta11-melissoyl-ACPs|
p6753
I362
sV|CPD-14318|
p6754
I9
sV|CPD-15281|
p6755
I36
sV|LEUCOPELARGONIDIN-CMPD|
p6756
I6
sV|cis-vaccen-2-enoyl-ACPs|
p6757
I8
sV|CPD-13489|
p6758
I6
sV|CPD-8594|
p6759
I9
sV|DIHYDROSANGUINARINE|
p6760
I64
sV|CPD-11868|
p6761
I7
sV|D-SERINE|
p6762
I7
sV|ECTOINE|
p6763
I4
sV|CPD-12302|
p6764
I2
sV|CPD-9215|
p6765
I10
sV|INDOLE-3-GLYCOL|
p6766
I36
s.